
TX16S_I2C_GT911_Test.elf:     file format elf32-littlearm

Sections:
Idx Name          Size      VMA       LMA       File off  Algn
  0 .isr_vector   000001ac  08000000  08000000  00010000  2**0
                  CONTENTS, ALLOC, LOAD, READONLY, DATA
  1 .text         00005a00  080001b0  080001b0  000101b0  2**4
                  CONTENTS, ALLOC, LOAD, READONLY, CODE
  2 .rodata       00000564  08005bb0  08005bb0  00015bb0  2**2
                  CONTENTS, ALLOC, LOAD, READONLY, DATA
  3 .ARM.extab    00000000  08006114  08006114  00020074  2**0
                  CONTENTS
  4 .ARM          00000008  08006114  08006114  00016114  2**2
                  CONTENTS, ALLOC, LOAD, READONLY, DATA
  5 .preinit_array 00000000  0800611c  0800611c  00020074  2**0
                  CONTENTS, ALLOC, LOAD, DATA
  6 .init_array   00000004  0800611c  0800611c  0001611c  2**2
                  CONTENTS, ALLOC, LOAD, DATA
  7 .fini_array   00000004  08006120  08006120  00016120  2**2
                  CONTENTS, ALLOC, LOAD, DATA
  8 .data         00000074  20000000  08006124  00020000  2**2
                  CONTENTS, ALLOC, LOAD, DATA
  9 .bss          00000c80  20000074  08006198  00020074  2**2
                  ALLOC
 10 ._user_heap_stack 00000604  20000cf4  08006198  00020cf4  2**0
                  ALLOC
 11 .ARM.attributes 00000030  00000000  00000000  00020074  2**0
                  CONTENTS, READONLY
 12 .comment      00000053  00000000  00000000  000200a4  2**0
                  CONTENTS, READONLY
 13 .debug_frame  000005cc  00000000  00000000  000200f8  2**2
                  CONTENTS, READONLY, DEBUGGING, OCTETS

Disassembly of section .text:

080001b0 <__do_global_dtors_aux>:
 80001b0:	b510      	push	{r4, lr}
 80001b2:	4c05      	ldr	r4, [pc, #20]	; (80001c8 <__do_global_dtors_aux+0x18>)
 80001b4:	7823      	ldrb	r3, [r4, #0]
 80001b6:	b933      	cbnz	r3, 80001c6 <__do_global_dtors_aux+0x16>
 80001b8:	4b04      	ldr	r3, [pc, #16]	; (80001cc <__do_global_dtors_aux+0x1c>)
 80001ba:	b113      	cbz	r3, 80001c2 <__do_global_dtors_aux+0x12>
 80001bc:	4804      	ldr	r0, [pc, #16]	; (80001d0 <__do_global_dtors_aux+0x20>)
 80001be:	f3af 8000 	nop.w
 80001c2:	2301      	movs	r3, #1
 80001c4:	7023      	strb	r3, [r4, #0]
 80001c6:	bd10      	pop	{r4, pc}
 80001c8:	20000074 	.word	0x20000074
 80001cc:	00000000 	.word	0x00000000
 80001d0:	08005b98 	.word	0x08005b98

080001d4 <frame_dummy>:
 80001d4:	b508      	push	{r3, lr}
 80001d6:	4b03      	ldr	r3, [pc, #12]	; (80001e4 <frame_dummy+0x10>)
 80001d8:	b11b      	cbz	r3, 80001e2 <frame_dummy+0xe>
 80001da:	4903      	ldr	r1, [pc, #12]	; (80001e8 <frame_dummy+0x14>)
 80001dc:	4803      	ldr	r0, [pc, #12]	; (80001ec <frame_dummy+0x18>)
 80001de:	f3af 8000 	nop.w
 80001e2:	bd08      	pop	{r3, pc}
 80001e4:	00000000 	.word	0x00000000
 80001e8:	20000078 	.word	0x20000078
 80001ec:	08005b98 	.word	0x08005b98

080001f0 <strcmp>:
 80001f0:	f810 2b01 	ldrb.w	r2, [r0], #1
 80001f4:	f811 3b01 	ldrb.w	r3, [r1], #1
 80001f8:	2a01      	cmp	r2, #1
 80001fa:	bf28      	it	cs
 80001fc:	429a      	cmpcs	r2, r3
 80001fe:	d0f7      	beq.n	80001f0 <strcmp>
 8000200:	1ad0      	subs	r0, r2, r3
 8000202:	4770      	bx	lr

08000204 <strlen>:
 8000204:	4603      	mov	r3, r0
 8000206:	f813 2b01 	ldrb.w	r2, [r3], #1
 800020a:	2a00      	cmp	r2, #0
 800020c:	d1fb      	bne.n	8000206 <strlen+0x2>
 800020e:	1a18      	subs	r0, r3, r0
 8000210:	3801      	subs	r0, #1
 8000212:	4770      	bx	lr
	...

08000220 <memchr>:
 8000220:	f001 01ff 	and.w	r1, r1, #255	; 0xff
 8000224:	2a10      	cmp	r2, #16
 8000226:	db2b      	blt.n	8000280 <memchr+0x60>
 8000228:	f010 0f07 	tst.w	r0, #7
 800022c:	d008      	beq.n	8000240 <memchr+0x20>
 800022e:	f810 3b01 	ldrb.w	r3, [r0], #1
 8000232:	3a01      	subs	r2, #1
 8000234:	428b      	cmp	r3, r1
 8000236:	d02d      	beq.n	8000294 <memchr+0x74>
 8000238:	f010 0f07 	tst.w	r0, #7
 800023c:	b342      	cbz	r2, 8000290 <memchr+0x70>
 800023e:	d1f6      	bne.n	800022e <memchr+0xe>
 8000240:	b4f0      	push	{r4, r5, r6, r7}
 8000242:	ea41 2101 	orr.w	r1, r1, r1, lsl #8
 8000246:	ea41 4101 	orr.w	r1, r1, r1, lsl #16
 800024a:	f022 0407 	bic.w	r4, r2, #7
 800024e:	f07f 0700 	mvns.w	r7, #0
 8000252:	2300      	movs	r3, #0
 8000254:	e8f0 5602 	ldrd	r5, r6, [r0], #8
 8000258:	3c08      	subs	r4, #8
 800025a:	ea85 0501 	eor.w	r5, r5, r1
 800025e:	ea86 0601 	eor.w	r6, r6, r1
 8000262:	fa85 f547 	uadd8	r5, r5, r7
 8000266:	faa3 f587 	sel	r5, r3, r7
 800026a:	fa86 f647 	uadd8	r6, r6, r7
 800026e:	faa5 f687 	sel	r6, r5, r7
 8000272:	b98e      	cbnz	r6, 8000298 <memchr+0x78>
 8000274:	d1ee      	bne.n	8000254 <memchr+0x34>
 8000276:	bcf0      	pop	{r4, r5, r6, r7}
 8000278:	f001 01ff 	and.w	r1, r1, #255	; 0xff
 800027c:	f002 0207 	and.w	r2, r2, #7
 8000280:	b132      	cbz	r2, 8000290 <memchr+0x70>
 8000282:	f810 3b01 	ldrb.w	r3, [r0], #1
 8000286:	3a01      	subs	r2, #1
 8000288:	ea83 0301 	eor.w	r3, r3, r1
 800028c:	b113      	cbz	r3, 8000294 <memchr+0x74>
 800028e:	d1f8      	bne.n	8000282 <memchr+0x62>
 8000290:	2000      	movs	r0, #0
 8000292:	4770      	bx	lr
 8000294:	3801      	subs	r0, #1
 8000296:	4770      	bx	lr
 8000298:	2d00      	cmp	r5, #0
 800029a:	bf06      	itte	eq
 800029c:	4635      	moveq	r5, r6
 800029e:	3803      	subeq	r0, #3
 80002a0:	3807      	subne	r0, #7
 80002a2:	f015 0f01 	tst.w	r5, #1
 80002a6:	d107      	bne.n	80002b8 <memchr+0x98>
 80002a8:	3001      	adds	r0, #1
 80002aa:	f415 7f80 	tst.w	r5, #256	; 0x100
 80002ae:	bf02      	ittt	eq
 80002b0:	3001      	addeq	r0, #1
 80002b2:	f415 3fc0 	tsteq.w	r5, #98304	; 0x18000
 80002b6:	3001      	addeq	r0, #1
 80002b8:	bcf0      	pop	{r4, r5, r6, r7}
 80002ba:	3801      	subs	r0, #1
 80002bc:	4770      	bx	lr
 80002be:	bf00      	nop

080002c0 <__aeabi_drsub>:
 80002c0:	f081 4100 	eor.w	r1, r1, #2147483648	; 0x80000000
 80002c4:	e002      	b.n	80002cc <__adddf3>
 80002c6:	bf00      	nop

080002c8 <__aeabi_dsub>:
 80002c8:	f083 4300 	eor.w	r3, r3, #2147483648	; 0x80000000

080002cc <__adddf3>:
 80002cc:	b530      	push	{r4, r5, lr}
 80002ce:	ea4f 0441 	mov.w	r4, r1, lsl #1
 80002d2:	ea4f 0543 	mov.w	r5, r3, lsl #1
 80002d6:	ea94 0f05 	teq	r4, r5
 80002da:	bf08      	it	eq
 80002dc:	ea90 0f02 	teqeq	r0, r2
 80002e0:	bf1f      	itttt	ne
 80002e2:	ea54 0c00 	orrsne.w	ip, r4, r0
 80002e6:	ea55 0c02 	orrsne.w	ip, r5, r2
 80002ea:	ea7f 5c64 	mvnsne.w	ip, r4, asr #21
 80002ee:	ea7f 5c65 	mvnsne.w	ip, r5, asr #21
 80002f2:	f000 80e2 	beq.w	80004ba <__adddf3+0x1ee>
 80002f6:	ea4f 5454 	mov.w	r4, r4, lsr #21
 80002fa:	ebd4 5555 	rsbs	r5, r4, r5, lsr #21
 80002fe:	bfb8      	it	lt
 8000300:	426d      	neglt	r5, r5
 8000302:	dd0c      	ble.n	800031e <__adddf3+0x52>
 8000304:	442c      	add	r4, r5
 8000306:	ea80 0202 	eor.w	r2, r0, r2
 800030a:	ea81 0303 	eor.w	r3, r1, r3
 800030e:	ea82 0000 	eor.w	r0, r2, r0
 8000312:	ea83 0101 	eor.w	r1, r3, r1
 8000316:	ea80 0202 	eor.w	r2, r0, r2
 800031a:	ea81 0303 	eor.w	r3, r1, r3
 800031e:	2d36      	cmp	r5, #54	; 0x36
 8000320:	bf88      	it	hi
 8000322:	bd30      	pophi	{r4, r5, pc}
 8000324:	f011 4f00 	tst.w	r1, #2147483648	; 0x80000000
 8000328:	ea4f 3101 	mov.w	r1, r1, lsl #12
 800032c:	f44f 1c80 	mov.w	ip, #1048576	; 0x100000
 8000330:	ea4c 3111 	orr.w	r1, ip, r1, lsr #12
 8000334:	d002      	beq.n	800033c <__adddf3+0x70>
 8000336:	4240      	negs	r0, r0
 8000338:	eb61 0141 	sbc.w	r1, r1, r1, lsl #1
 800033c:	f013 4f00 	tst.w	r3, #2147483648	; 0x80000000
 8000340:	ea4f 3303 	mov.w	r3, r3, lsl #12
 8000344:	ea4c 3313 	orr.w	r3, ip, r3, lsr #12
 8000348:	d002      	beq.n	8000350 <__adddf3+0x84>
 800034a:	4252      	negs	r2, r2
 800034c:	eb63 0343 	sbc.w	r3, r3, r3, lsl #1
 8000350:	ea94 0f05 	teq	r4, r5
 8000354:	f000 80a7 	beq.w	80004a6 <__adddf3+0x1da>
 8000358:	f1a4 0401 	sub.w	r4, r4, #1
 800035c:	f1d5 0e20 	rsbs	lr, r5, #32
 8000360:	db0d      	blt.n	800037e <__adddf3+0xb2>
 8000362:	fa02 fc0e 	lsl.w	ip, r2, lr
 8000366:	fa22 f205 	lsr.w	r2, r2, r5
 800036a:	1880      	adds	r0, r0, r2
 800036c:	f141 0100 	adc.w	r1, r1, #0
 8000370:	fa03 f20e 	lsl.w	r2, r3, lr
 8000374:	1880      	adds	r0, r0, r2
 8000376:	fa43 f305 	asr.w	r3, r3, r5
 800037a:	4159      	adcs	r1, r3
 800037c:	e00e      	b.n	800039c <__adddf3+0xd0>
 800037e:	f1a5 0520 	sub.w	r5, r5, #32
 8000382:	f10e 0e20 	add.w	lr, lr, #32
 8000386:	2a01      	cmp	r2, #1
 8000388:	fa03 fc0e 	lsl.w	ip, r3, lr
 800038c:	bf28      	it	cs
 800038e:	f04c 0c02 	orrcs.w	ip, ip, #2
 8000392:	fa43 f305 	asr.w	r3, r3, r5
 8000396:	18c0      	adds	r0, r0, r3
 8000398:	eb51 71e3 	adcs.w	r1, r1, r3, asr #31
 800039c:	f001 4500 	and.w	r5, r1, #2147483648	; 0x80000000
 80003a0:	d507      	bpl.n	80003b2 <__adddf3+0xe6>
 80003a2:	f04f 0e00 	mov.w	lr, #0
 80003a6:	f1dc 0c00 	rsbs	ip, ip, #0
 80003aa:	eb7e 0000 	sbcs.w	r0, lr, r0
 80003ae:	eb6e 0101 	sbc.w	r1, lr, r1
 80003b2:	f5b1 1f80 	cmp.w	r1, #1048576	; 0x100000
 80003b6:	d31b      	bcc.n	80003f0 <__adddf3+0x124>
 80003b8:	f5b1 1f00 	cmp.w	r1, #2097152	; 0x200000
 80003bc:	d30c      	bcc.n	80003d8 <__adddf3+0x10c>
 80003be:	0849      	lsrs	r1, r1, #1
 80003c0:	ea5f 0030 	movs.w	r0, r0, rrx
 80003c4:	ea4f 0c3c 	mov.w	ip, ip, rrx
 80003c8:	f104 0401 	add.w	r4, r4, #1
 80003cc:	ea4f 5244 	mov.w	r2, r4, lsl #21
 80003d0:	f512 0f80 	cmn.w	r2, #4194304	; 0x400000
 80003d4:	f080 809a 	bcs.w	800050c <__adddf3+0x240>
 80003d8:	f1bc 4f00 	cmp.w	ip, #2147483648	; 0x80000000
 80003dc:	bf08      	it	eq
 80003de:	ea5f 0c50 	movseq.w	ip, r0, lsr #1
 80003e2:	f150 0000 	adcs.w	r0, r0, #0
 80003e6:	eb41 5104 	adc.w	r1, r1, r4, lsl #20
 80003ea:	ea41 0105 	orr.w	r1, r1, r5
 80003ee:	bd30      	pop	{r4, r5, pc}
 80003f0:	ea5f 0c4c 	movs.w	ip, ip, lsl #1
 80003f4:	4140      	adcs	r0, r0
 80003f6:	eb41 0101 	adc.w	r1, r1, r1
 80003fa:	3c01      	subs	r4, #1
 80003fc:	bf28      	it	cs
 80003fe:	f5b1 1f80 	cmpcs.w	r1, #1048576	; 0x100000
 8000402:	d2e9      	bcs.n	80003d8 <__adddf3+0x10c>
 8000404:	f091 0f00 	teq	r1, #0
 8000408:	bf04      	itt	eq
 800040a:	4601      	moveq	r1, r0
 800040c:	2000      	moveq	r0, #0
 800040e:	fab1 f381 	clz	r3, r1
 8000412:	bf08      	it	eq
 8000414:	3320      	addeq	r3, #32
 8000416:	f1a3 030b 	sub.w	r3, r3, #11
 800041a:	f1b3 0220 	subs.w	r2, r3, #32
 800041e:	da0c      	bge.n	800043a <__adddf3+0x16e>
 8000420:	320c      	adds	r2, #12
 8000422:	dd08      	ble.n	8000436 <__adddf3+0x16a>
 8000424:	f102 0c14 	add.w	ip, r2, #20
 8000428:	f1c2 020c 	rsb	r2, r2, #12
 800042c:	fa01 f00c 	lsl.w	r0, r1, ip
 8000430:	fa21 f102 	lsr.w	r1, r1, r2
 8000434:	e00c      	b.n	8000450 <__adddf3+0x184>
 8000436:	f102 0214 	add.w	r2, r2, #20
 800043a:	bfd8      	it	le
 800043c:	f1c2 0c20 	rsble	ip, r2, #32
 8000440:	fa01 f102 	lsl.w	r1, r1, r2
 8000444:	fa20 fc0c 	lsr.w	ip, r0, ip
 8000448:	bfdc      	itt	le
 800044a:	ea41 010c 	orrle.w	r1, r1, ip
 800044e:	4090      	lslle	r0, r2
 8000450:	1ae4      	subs	r4, r4, r3
 8000452:	bfa2      	ittt	ge
 8000454:	eb01 5104 	addge.w	r1, r1, r4, lsl #20
 8000458:	4329      	orrge	r1, r5
 800045a:	bd30      	popge	{r4, r5, pc}
 800045c:	ea6f 0404 	mvn.w	r4, r4
 8000460:	3c1f      	subs	r4, #31
 8000462:	da1c      	bge.n	800049e <__adddf3+0x1d2>
 8000464:	340c      	adds	r4, #12
 8000466:	dc0e      	bgt.n	8000486 <__adddf3+0x1ba>
 8000468:	f104 0414 	add.w	r4, r4, #20
 800046c:	f1c4 0220 	rsb	r2, r4, #32
 8000470:	fa20 f004 	lsr.w	r0, r0, r4
 8000474:	fa01 f302 	lsl.w	r3, r1, r2
 8000478:	ea40 0003 	orr.w	r0, r0, r3
 800047c:	fa21 f304 	lsr.w	r3, r1, r4
 8000480:	ea45 0103 	orr.w	r1, r5, r3
 8000484:	bd30      	pop	{r4, r5, pc}
 8000486:	f1c4 040c 	rsb	r4, r4, #12
 800048a:	f1c4 0220 	rsb	r2, r4, #32
 800048e:	fa20 f002 	lsr.w	r0, r0, r2
 8000492:	fa01 f304 	lsl.w	r3, r1, r4
 8000496:	ea40 0003 	orr.w	r0, r0, r3
 800049a:	4629      	mov	r1, r5
 800049c:	bd30      	pop	{r4, r5, pc}
 800049e:	fa21 f004 	lsr.w	r0, r1, r4
 80004a2:	4629      	mov	r1, r5
 80004a4:	bd30      	pop	{r4, r5, pc}
 80004a6:	f094 0f00 	teq	r4, #0
 80004aa:	f483 1380 	eor.w	r3, r3, #1048576	; 0x100000
 80004ae:	bf06      	itte	eq
 80004b0:	f481 1180 	eoreq.w	r1, r1, #1048576	; 0x100000
 80004b4:	3401      	addeq	r4, #1
 80004b6:	3d01      	subne	r5, #1
 80004b8:	e74e      	b.n	8000358 <__adddf3+0x8c>
 80004ba:	ea7f 5c64 	mvns.w	ip, r4, asr #21
 80004be:	bf18      	it	ne
 80004c0:	ea7f 5c65 	mvnsne.w	ip, r5, asr #21
 80004c4:	d029      	beq.n	800051a <__adddf3+0x24e>
 80004c6:	ea94 0f05 	teq	r4, r5
 80004ca:	bf08      	it	eq
 80004cc:	ea90 0f02 	teqeq	r0, r2
 80004d0:	d005      	beq.n	80004de <__adddf3+0x212>
 80004d2:	ea54 0c00 	orrs.w	ip, r4, r0
 80004d6:	bf04      	itt	eq
 80004d8:	4619      	moveq	r1, r3
 80004da:	4610      	moveq	r0, r2
 80004dc:	bd30      	pop	{r4, r5, pc}
 80004de:	ea91 0f03 	teq	r1, r3
 80004e2:	bf1e      	ittt	ne
 80004e4:	2100      	movne	r1, #0
 80004e6:	2000      	movne	r0, #0
 80004e8:	bd30      	popne	{r4, r5, pc}
 80004ea:	ea5f 5c54 	movs.w	ip, r4, lsr #21
 80004ee:	d105      	bne.n	80004fc <__adddf3+0x230>
 80004f0:	0040      	lsls	r0, r0, #1
 80004f2:	4149      	adcs	r1, r1
 80004f4:	bf28      	it	cs
 80004f6:	f041 4100 	orrcs.w	r1, r1, #2147483648	; 0x80000000
 80004fa:	bd30      	pop	{r4, r5, pc}
 80004fc:	f514 0480 	adds.w	r4, r4, #4194304	; 0x400000
 8000500:	bf3c      	itt	cc
 8000502:	f501 1180 	addcc.w	r1, r1, #1048576	; 0x100000
 8000506:	bd30      	popcc	{r4, r5, pc}
 8000508:	f001 4500 	and.w	r5, r1, #2147483648	; 0x80000000
 800050c:	f045 41fe 	orr.w	r1, r5, #2130706432	; 0x7f000000
 8000510:	f441 0170 	orr.w	r1, r1, #15728640	; 0xf00000
 8000514:	f04f 0000 	mov.w	r0, #0
 8000518:	bd30      	pop	{r4, r5, pc}
 800051a:	ea7f 5c64 	mvns.w	ip, r4, asr #21
 800051e:	bf1a      	itte	ne
 8000520:	4619      	movne	r1, r3
 8000522:	4610      	movne	r0, r2
 8000524:	ea7f 5c65 	mvnseq.w	ip, r5, asr #21
 8000528:	bf1c      	itt	ne
 800052a:	460b      	movne	r3, r1
 800052c:	4602      	movne	r2, r0
 800052e:	ea50 3401 	orrs.w	r4, r0, r1, lsl #12
 8000532:	bf06      	itte	eq
 8000534:	ea52 3503 	orrseq.w	r5, r2, r3, lsl #12
 8000538:	ea91 0f03 	teqeq	r1, r3
 800053c:	f441 2100 	orrne.w	r1, r1, #524288	; 0x80000
 8000540:	bd30      	pop	{r4, r5, pc}
 8000542:	bf00      	nop

08000544 <__aeabi_ui2d>:
 8000544:	f090 0f00 	teq	r0, #0
 8000548:	bf04      	itt	eq
 800054a:	2100      	moveq	r1, #0
 800054c:	4770      	bxeq	lr
 800054e:	b530      	push	{r4, r5, lr}
 8000550:	f44f 6480 	mov.w	r4, #1024	; 0x400
 8000554:	f104 0432 	add.w	r4, r4, #50	; 0x32
 8000558:	f04f 0500 	mov.w	r5, #0
 800055c:	f04f 0100 	mov.w	r1, #0
 8000560:	e750      	b.n	8000404 <__adddf3+0x138>
 8000562:	bf00      	nop

08000564 <__aeabi_i2d>:
 8000564:	f090 0f00 	teq	r0, #0
 8000568:	bf04      	itt	eq
 800056a:	2100      	moveq	r1, #0
 800056c:	4770      	bxeq	lr
 800056e:	b530      	push	{r4, r5, lr}
 8000570:	f44f 6480 	mov.w	r4, #1024	; 0x400
 8000574:	f104 0432 	add.w	r4, r4, #50	; 0x32
 8000578:	f010 4500 	ands.w	r5, r0, #2147483648	; 0x80000000
 800057c:	bf48      	it	mi
 800057e:	4240      	negmi	r0, r0
 8000580:	f04f 0100 	mov.w	r1, #0
 8000584:	e73e      	b.n	8000404 <__adddf3+0x138>
 8000586:	bf00      	nop

08000588 <__aeabi_f2d>:
 8000588:	0042      	lsls	r2, r0, #1
 800058a:	ea4f 01e2 	mov.w	r1, r2, asr #3
 800058e:	ea4f 0131 	mov.w	r1, r1, rrx
 8000592:	ea4f 7002 	mov.w	r0, r2, lsl #28
 8000596:	bf1f      	itttt	ne
 8000598:	f012 437f 	andsne.w	r3, r2, #4278190080	; 0xff000000
 800059c:	f093 4f7f 	teqne	r3, #4278190080	; 0xff000000
 80005a0:	f081 5160 	eorne.w	r1, r1, #939524096	; 0x38000000
 80005a4:	4770      	bxne	lr
 80005a6:	f032 427f 	bics.w	r2, r2, #4278190080	; 0xff000000
 80005aa:	bf08      	it	eq
 80005ac:	4770      	bxeq	lr
 80005ae:	f093 4f7f 	teq	r3, #4278190080	; 0xff000000
 80005b2:	bf04      	itt	eq
 80005b4:	f441 2100 	orreq.w	r1, r1, #524288	; 0x80000
 80005b8:	4770      	bxeq	lr
 80005ba:	b530      	push	{r4, r5, lr}
 80005bc:	f44f 7460 	mov.w	r4, #896	; 0x380
 80005c0:	f001 4500 	and.w	r5, r1, #2147483648	; 0x80000000
 80005c4:	f021 4100 	bic.w	r1, r1, #2147483648	; 0x80000000
 80005c8:	e71c      	b.n	8000404 <__adddf3+0x138>
 80005ca:	bf00      	nop

080005cc <__aeabi_ul2d>:
 80005cc:	ea50 0201 	orrs.w	r2, r0, r1
 80005d0:	bf08      	it	eq
 80005d2:	4770      	bxeq	lr
 80005d4:	b530      	push	{r4, r5, lr}
 80005d6:	f04f 0500 	mov.w	r5, #0
 80005da:	e00a      	b.n	80005f2 <__aeabi_l2d+0x16>

080005dc <__aeabi_l2d>:
 80005dc:	ea50 0201 	orrs.w	r2, r0, r1
 80005e0:	bf08      	it	eq
 80005e2:	4770      	bxeq	lr
 80005e4:	b530      	push	{r4, r5, lr}
 80005e6:	f011 4500 	ands.w	r5, r1, #2147483648	; 0x80000000
 80005ea:	d502      	bpl.n	80005f2 <__aeabi_l2d+0x16>
 80005ec:	4240      	negs	r0, r0
 80005ee:	eb61 0141 	sbc.w	r1, r1, r1, lsl #1
 80005f2:	f44f 6480 	mov.w	r4, #1024	; 0x400
 80005f6:	f104 0432 	add.w	r4, r4, #50	; 0x32
 80005fa:	ea5f 5c91 	movs.w	ip, r1, lsr #22
 80005fe:	f43f aed8 	beq.w	80003b2 <__adddf3+0xe6>
 8000602:	f04f 0203 	mov.w	r2, #3
 8000606:	ea5f 0cdc 	movs.w	ip, ip, lsr #3
 800060a:	bf18      	it	ne
 800060c:	3203      	addne	r2, #3
 800060e:	ea5f 0cdc 	movs.w	ip, ip, lsr #3
 8000612:	bf18      	it	ne
 8000614:	3203      	addne	r2, #3
 8000616:	eb02 02dc 	add.w	r2, r2, ip, lsr #3
 800061a:	f1c2 0320 	rsb	r3, r2, #32
 800061e:	fa00 fc03 	lsl.w	ip, r0, r3
 8000622:	fa20 f002 	lsr.w	r0, r0, r2
 8000626:	fa01 fe03 	lsl.w	lr, r1, r3
 800062a:	ea40 000e 	orr.w	r0, r0, lr
 800062e:	fa21 f102 	lsr.w	r1, r1, r2
 8000632:	4414      	add	r4, r2
 8000634:	e6bd      	b.n	80003b2 <__adddf3+0xe6>
 8000636:	bf00      	nop

08000638 <__aeabi_uldivmod>:
 8000638:	b953      	cbnz	r3, 8000650 <__aeabi_uldivmod+0x18>
 800063a:	b94a      	cbnz	r2, 8000650 <__aeabi_uldivmod+0x18>
 800063c:	2900      	cmp	r1, #0
 800063e:	bf08      	it	eq
 8000640:	2800      	cmpeq	r0, #0
 8000642:	bf1c      	itt	ne
 8000644:	f04f 31ff 	movne.w	r1, #4294967295
 8000648:	f04f 30ff 	movne.w	r0, #4294967295
 800064c:	f000 b96e 	b.w	800092c <__aeabi_idiv0>
 8000650:	f1ad 0c08 	sub.w	ip, sp, #8
 8000654:	e96d ce04 	strd	ip, lr, [sp, #-16]!
 8000658:	f000 f806 	bl	8000668 <__udivmoddi4>
 800065c:	f8dd e004 	ldr.w	lr, [sp, #4]
 8000660:	e9dd 2302 	ldrd	r2, r3, [sp, #8]
 8000664:	b004      	add	sp, #16
 8000666:	4770      	bx	lr

08000668 <__udivmoddi4>:
 8000668:	e92d 47f0 	stmdb	sp!, {r4, r5, r6, r7, r8, r9, sl, lr}
 800066c:	9d08      	ldr	r5, [sp, #32]
 800066e:	4604      	mov	r4, r0
 8000670:	468c      	mov	ip, r1
 8000672:	2b00      	cmp	r3, #0
 8000674:	f040 8083 	bne.w	800077e <__udivmoddi4+0x116>
 8000678:	428a      	cmp	r2, r1
 800067a:	4617      	mov	r7, r2
 800067c:	d947      	bls.n	800070e <__udivmoddi4+0xa6>
 800067e:	fab2 f282 	clz	r2, r2
 8000682:	b142      	cbz	r2, 8000696 <__udivmoddi4+0x2e>
 8000684:	f1c2 0020 	rsb	r0, r2, #32
 8000688:	fa24 f000 	lsr.w	r0, r4, r0
 800068c:	4091      	lsls	r1, r2
 800068e:	4097      	lsls	r7, r2
 8000690:	ea40 0c01 	orr.w	ip, r0, r1
 8000694:	4094      	lsls	r4, r2
 8000696:	ea4f 4817 	mov.w	r8, r7, lsr #16
 800069a:	0c23      	lsrs	r3, r4, #16
 800069c:	fbbc f6f8 	udiv	r6, ip, r8
 80006a0:	fa1f fe87 	uxth.w	lr, r7
 80006a4:	fb08 c116 	mls	r1, r8, r6, ip
 80006a8:	ea43 4301 	orr.w	r3, r3, r1, lsl #16
 80006ac:	fb06 f10e 	mul.w	r1, r6, lr
 80006b0:	4299      	cmp	r1, r3
 80006b2:	d909      	bls.n	80006c8 <__udivmoddi4+0x60>
 80006b4:	18fb      	adds	r3, r7, r3
 80006b6:	f106 30ff 	add.w	r0, r6, #4294967295
 80006ba:	f080 8119 	bcs.w	80008f0 <__udivmoddi4+0x288>
 80006be:	4299      	cmp	r1, r3
 80006c0:	f240 8116 	bls.w	80008f0 <__udivmoddi4+0x288>
 80006c4:	3e02      	subs	r6, #2
 80006c6:	443b      	add	r3, r7
 80006c8:	1a5b      	subs	r3, r3, r1
 80006ca:	b2a4      	uxth	r4, r4
 80006cc:	fbb3 f0f8 	udiv	r0, r3, r8
 80006d0:	fb08 3310 	mls	r3, r8, r0, r3
 80006d4:	ea44 4403 	orr.w	r4, r4, r3, lsl #16
 80006d8:	fb00 fe0e 	mul.w	lr, r0, lr
 80006dc:	45a6      	cmp	lr, r4
 80006de:	d909      	bls.n	80006f4 <__udivmoddi4+0x8c>
 80006e0:	193c      	adds	r4, r7, r4
 80006e2:	f100 33ff 	add.w	r3, r0, #4294967295
 80006e6:	f080 8105 	bcs.w	80008f4 <__udivmoddi4+0x28c>
 80006ea:	45a6      	cmp	lr, r4
 80006ec:	f240 8102 	bls.w	80008f4 <__udivmoddi4+0x28c>
 80006f0:	3802      	subs	r0, #2
 80006f2:	443c      	add	r4, r7
 80006f4:	ea40 4006 	orr.w	r0, r0, r6, lsl #16
 80006f8:	eba4 040e 	sub.w	r4, r4, lr
 80006fc:	2600      	movs	r6, #0
 80006fe:	b11d      	cbz	r5, 8000708 <__udivmoddi4+0xa0>
 8000700:	40d4      	lsrs	r4, r2
 8000702:	2300      	movs	r3, #0
 8000704:	e9c5 4300 	strd	r4, r3, [r5]
 8000708:	4631      	mov	r1, r6
 800070a:	e8bd 87f0 	ldmia.w	sp!, {r4, r5, r6, r7, r8, r9, sl, pc}
 800070e:	b902      	cbnz	r2, 8000712 <__udivmoddi4+0xaa>
 8000710:	deff      	udf	#255	; 0xff
 8000712:	fab2 f282 	clz	r2, r2
 8000716:	2a00      	cmp	r2, #0
 8000718:	d150      	bne.n	80007bc <__udivmoddi4+0x154>
 800071a:	1bcb      	subs	r3, r1, r7
 800071c:	ea4f 4e17 	mov.w	lr, r7, lsr #16
 8000720:	fa1f f887 	uxth.w	r8, r7
 8000724:	2601      	movs	r6, #1
 8000726:	fbb3 fcfe 	udiv	ip, r3, lr
 800072a:	0c21      	lsrs	r1, r4, #16
 800072c:	fb0e 331c 	mls	r3, lr, ip, r3
 8000730:	ea41 4103 	orr.w	r1, r1, r3, lsl #16
 8000734:	fb08 f30c 	mul.w	r3, r8, ip
 8000738:	428b      	cmp	r3, r1
 800073a:	d907      	bls.n	800074c <__udivmoddi4+0xe4>
 800073c:	1879      	adds	r1, r7, r1
 800073e:	f10c 30ff 	add.w	r0, ip, #4294967295
 8000742:	d202      	bcs.n	800074a <__udivmoddi4+0xe2>
 8000744:	428b      	cmp	r3, r1
 8000746:	f200 80e9 	bhi.w	800091c <__udivmoddi4+0x2b4>
 800074a:	4684      	mov	ip, r0
 800074c:	1ac9      	subs	r1, r1, r3
 800074e:	b2a3      	uxth	r3, r4
 8000750:	fbb1 f0fe 	udiv	r0, r1, lr
 8000754:	fb0e 1110 	mls	r1, lr, r0, r1
 8000758:	ea43 4401 	orr.w	r4, r3, r1, lsl #16
 800075c:	fb08 f800 	mul.w	r8, r8, r0
 8000760:	45a0      	cmp	r8, r4
 8000762:	d907      	bls.n	8000774 <__udivmoddi4+0x10c>
 8000764:	193c      	adds	r4, r7, r4
 8000766:	f100 33ff 	add.w	r3, r0, #4294967295
 800076a:	d202      	bcs.n	8000772 <__udivmoddi4+0x10a>
 800076c:	45a0      	cmp	r8, r4
 800076e:	f200 80d9 	bhi.w	8000924 <__udivmoddi4+0x2bc>
 8000772:	4618      	mov	r0, r3
 8000774:	eba4 0408 	sub.w	r4, r4, r8
 8000778:	ea40 400c 	orr.w	r0, r0, ip, lsl #16
 800077c:	e7bf      	b.n	80006fe <__udivmoddi4+0x96>
 800077e:	428b      	cmp	r3, r1
 8000780:	d909      	bls.n	8000796 <__udivmoddi4+0x12e>
 8000782:	2d00      	cmp	r5, #0
 8000784:	f000 80b1 	beq.w	80008ea <__udivmoddi4+0x282>
 8000788:	2600      	movs	r6, #0
 800078a:	e9c5 0100 	strd	r0, r1, [r5]
 800078e:	4630      	mov	r0, r6
 8000790:	4631      	mov	r1, r6
 8000792:	e8bd 87f0 	ldmia.w	sp!, {r4, r5, r6, r7, r8, r9, sl, pc}
 8000796:	fab3 f683 	clz	r6, r3
 800079a:	2e00      	cmp	r6, #0
 800079c:	d14a      	bne.n	8000834 <__udivmoddi4+0x1cc>
 800079e:	428b      	cmp	r3, r1
 80007a0:	d302      	bcc.n	80007a8 <__udivmoddi4+0x140>
 80007a2:	4282      	cmp	r2, r0
 80007a4:	f200 80b8 	bhi.w	8000918 <__udivmoddi4+0x2b0>
 80007a8:	1a84      	subs	r4, r0, r2
 80007aa:	eb61 0103 	sbc.w	r1, r1, r3
 80007ae:	2001      	movs	r0, #1
 80007b0:	468c      	mov	ip, r1
 80007b2:	2d00      	cmp	r5, #0
 80007b4:	d0a8      	beq.n	8000708 <__udivmoddi4+0xa0>
 80007b6:	e9c5 4c00 	strd	r4, ip, [r5]
 80007ba:	e7a5      	b.n	8000708 <__udivmoddi4+0xa0>
 80007bc:	f1c2 0320 	rsb	r3, r2, #32
 80007c0:	fa20 f603 	lsr.w	r6, r0, r3
 80007c4:	4097      	lsls	r7, r2
 80007c6:	fa01 f002 	lsl.w	r0, r1, r2
 80007ca:	ea4f 4e17 	mov.w	lr, r7, lsr #16
 80007ce:	40d9      	lsrs	r1, r3
 80007d0:	4330      	orrs	r0, r6
 80007d2:	0c03      	lsrs	r3, r0, #16
 80007d4:	fbb1 f6fe 	udiv	r6, r1, lr
 80007d8:	fa1f f887 	uxth.w	r8, r7
 80007dc:	fb0e 1116 	mls	r1, lr, r6, r1
 80007e0:	ea43 4301 	orr.w	r3, r3, r1, lsl #16
 80007e4:	fb06 f108 	mul.w	r1, r6, r8
 80007e8:	4299      	cmp	r1, r3
 80007ea:	fa04 f402 	lsl.w	r4, r4, r2
 80007ee:	d909      	bls.n	8000804 <__udivmoddi4+0x19c>
 80007f0:	18fb      	adds	r3, r7, r3
 80007f2:	f106 3cff 	add.w	ip, r6, #4294967295
 80007f6:	f080 808d 	bcs.w	8000914 <__udivmoddi4+0x2ac>
 80007fa:	4299      	cmp	r1, r3
 80007fc:	f240 808a 	bls.w	8000914 <__udivmoddi4+0x2ac>
 8000800:	3e02      	subs	r6, #2
 8000802:	443b      	add	r3, r7
 8000804:	1a5b      	subs	r3, r3, r1
 8000806:	b281      	uxth	r1, r0
 8000808:	fbb3 f0fe 	udiv	r0, r3, lr
 800080c:	fb0e 3310 	mls	r3, lr, r0, r3
 8000810:	ea41 4103 	orr.w	r1, r1, r3, lsl #16
 8000814:	fb00 f308 	mul.w	r3, r0, r8
 8000818:	428b      	cmp	r3, r1
 800081a:	d907      	bls.n	800082c <__udivmoddi4+0x1c4>
 800081c:	1879      	adds	r1, r7, r1
 800081e:	f100 3cff 	add.w	ip, r0, #4294967295
 8000822:	d273      	bcs.n	800090c <__udivmoddi4+0x2a4>
 8000824:	428b      	cmp	r3, r1
 8000826:	d971      	bls.n	800090c <__udivmoddi4+0x2a4>
 8000828:	3802      	subs	r0, #2
 800082a:	4439      	add	r1, r7
 800082c:	1acb      	subs	r3, r1, r3
 800082e:	ea40 4606 	orr.w	r6, r0, r6, lsl #16
 8000832:	e778      	b.n	8000726 <__udivmoddi4+0xbe>
 8000834:	f1c6 0c20 	rsb	ip, r6, #32
 8000838:	fa03 f406 	lsl.w	r4, r3, r6
 800083c:	fa22 f30c 	lsr.w	r3, r2, ip
 8000840:	431c      	orrs	r4, r3
 8000842:	fa20 f70c 	lsr.w	r7, r0, ip
 8000846:	fa01 f306 	lsl.w	r3, r1, r6
 800084a:	ea4f 4e14 	mov.w	lr, r4, lsr #16
 800084e:	fa21 f10c 	lsr.w	r1, r1, ip
 8000852:	431f      	orrs	r7, r3
 8000854:	0c3b      	lsrs	r3, r7, #16
 8000856:	fbb1 f9fe 	udiv	r9, r1, lr
 800085a:	fa1f f884 	uxth.w	r8, r4
 800085e:	fb0e 1119 	mls	r1, lr, r9, r1
 8000862:	ea43 4101 	orr.w	r1, r3, r1, lsl #16
 8000866:	fb09 fa08 	mul.w	sl, r9, r8
 800086a:	458a      	cmp	sl, r1
 800086c:	fa02 f206 	lsl.w	r2, r2, r6
 8000870:	fa00 f306 	lsl.w	r3, r0, r6
 8000874:	d908      	bls.n	8000888 <__udivmoddi4+0x220>
 8000876:	1861      	adds	r1, r4, r1
 8000878:	f109 30ff 	add.w	r0, r9, #4294967295
 800087c:	d248      	bcs.n	8000910 <__udivmoddi4+0x2a8>
 800087e:	458a      	cmp	sl, r1
 8000880:	d946      	bls.n	8000910 <__udivmoddi4+0x2a8>
 8000882:	f1a9 0902 	sub.w	r9, r9, #2
 8000886:	4421      	add	r1, r4
 8000888:	eba1 010a 	sub.w	r1, r1, sl
 800088c:	b2bf      	uxth	r7, r7
 800088e:	fbb1 f0fe 	udiv	r0, r1, lr
 8000892:	fb0e 1110 	mls	r1, lr, r0, r1
 8000896:	ea47 4701 	orr.w	r7, r7, r1, lsl #16
 800089a:	fb00 f808 	mul.w	r8, r0, r8
 800089e:	45b8      	cmp	r8, r7
 80008a0:	d907      	bls.n	80008b2 <__udivmoddi4+0x24a>
 80008a2:	19e7      	adds	r7, r4, r7
 80008a4:	f100 31ff 	add.w	r1, r0, #4294967295
 80008a8:	d22e      	bcs.n	8000908 <__udivmoddi4+0x2a0>
 80008aa:	45b8      	cmp	r8, r7
 80008ac:	d92c      	bls.n	8000908 <__udivmoddi4+0x2a0>
 80008ae:	3802      	subs	r0, #2
 80008b0:	4427      	add	r7, r4
 80008b2:	ea40 4009 	orr.w	r0, r0, r9, lsl #16
 80008b6:	eba7 0708 	sub.w	r7, r7, r8
 80008ba:	fba0 8902 	umull	r8, r9, r0, r2
 80008be:	454f      	cmp	r7, r9
 80008c0:	46c6      	mov	lr, r8
 80008c2:	4649      	mov	r1, r9
 80008c4:	d31a      	bcc.n	80008fc <__udivmoddi4+0x294>
 80008c6:	d017      	beq.n	80008f8 <__udivmoddi4+0x290>
 80008c8:	b15d      	cbz	r5, 80008e2 <__udivmoddi4+0x27a>
 80008ca:	ebb3 020e 	subs.w	r2, r3, lr
 80008ce:	eb67 0701 	sbc.w	r7, r7, r1
 80008d2:	fa07 fc0c 	lsl.w	ip, r7, ip
 80008d6:	40f2      	lsrs	r2, r6
 80008d8:	ea4c 0202 	orr.w	r2, ip, r2
 80008dc:	40f7      	lsrs	r7, r6
 80008de:	e9c5 2700 	strd	r2, r7, [r5]
 80008e2:	2600      	movs	r6, #0
 80008e4:	4631      	mov	r1, r6
 80008e6:	e8bd 87f0 	ldmia.w	sp!, {r4, r5, r6, r7, r8, r9, sl, pc}
 80008ea:	462e      	mov	r6, r5
 80008ec:	4628      	mov	r0, r5
 80008ee:	e70b      	b.n	8000708 <__udivmoddi4+0xa0>
 80008f0:	4606      	mov	r6, r0
 80008f2:	e6e9      	b.n	80006c8 <__udivmoddi4+0x60>
 80008f4:	4618      	mov	r0, r3
 80008f6:	e6fd      	b.n	80006f4 <__udivmoddi4+0x8c>
 80008f8:	4543      	cmp	r3, r8
 80008fa:	d2e5      	bcs.n	80008c8 <__udivmoddi4+0x260>
 80008fc:	ebb8 0e02 	subs.w	lr, r8, r2
 8000900:	eb69 0104 	sbc.w	r1, r9, r4
 8000904:	3801      	subs	r0, #1
 8000906:	e7df      	b.n	80008c8 <__udivmoddi4+0x260>
 8000908:	4608      	mov	r0, r1
 800090a:	e7d2      	b.n	80008b2 <__udivmoddi4+0x24a>
 800090c:	4660      	mov	r0, ip
 800090e:	e78d      	b.n	800082c <__udivmoddi4+0x1c4>
 8000910:	4681      	mov	r9, r0
 8000912:	e7b9      	b.n	8000888 <__udivmoddi4+0x220>
 8000914:	4666      	mov	r6, ip
 8000916:	e775      	b.n	8000804 <__udivmoddi4+0x19c>
 8000918:	4630      	mov	r0, r6
 800091a:	e74a      	b.n	80007b2 <__udivmoddi4+0x14a>
 800091c:	f1ac 0c02 	sub.w	ip, ip, #2
 8000920:	4439      	add	r1, r7
 8000922:	e713      	b.n	800074c <__udivmoddi4+0xe4>
 8000924:	3802      	subs	r0, #2
 8000926:	443c      	add	r4, r7
 8000928:	e724      	b.n	8000774 <__udivmoddi4+0x10c>
 800092a:	bf00      	nop

0800092c <__aeabi_idiv0>:
 800092c:	4770      	bx	lr
 800092e:	bf00      	nop

08000930 <serialPrintf>:
 8000930:	b40f      	push	{r0, r1, r2, r3}
 8000932:	b530      	push	{r4, r5, lr}
 8000934:	b0a3      	sub	sp, #140	; 0x8c
 8000936:	ac26      	add	r4, sp, #152	; 0x98
 8000938:	f854 5b04 	ldr.w	r5, [r4], #4
 800093c:	f001 fbbe 	bl	80020bc <HAL_GetTick>
 8000940:	4a11      	ldr	r2, [pc, #68]	; (8000988 <serialPrintf+0x58>)
 8000942:	4603      	mov	r3, r0
 8000944:	2180      	movs	r1, #128	; 0x80
 8000946:	a801      	add	r0, sp, #4
 8000948:	f004 fcaa 	bl	80052a0 <sniprintf>
 800094c:	a801      	add	r0, sp, #4
 800094e:	9400      	str	r4, [sp, #0]
 8000950:	f7ff fc58 	bl	8000204 <strlen>
 8000954:	4623      	mov	r3, r4
 8000956:	ac01      	add	r4, sp, #4
 8000958:	462a      	mov	r2, r5
 800095a:	f1c0 0180 	rsb	r1, r0, #128	; 0x80
 800095e:	4420      	add	r0, r4
 8000960:	f004 fcfe 	bl	8005360 <vsniprintf>
 8000964:	2300      	movs	r3, #0
 8000966:	a801      	add	r0, sp, #4
 8000968:	f88d 3084 	strb.w	r3, [sp, #132]	; 0x84
 800096c:	f7ff fc4a 	bl	8000204 <strlen>
 8000970:	230a      	movs	r3, #10
 8000972:	b282      	uxth	r2, r0
 8000974:	a901      	add	r1, sp, #4
 8000976:	4805      	ldr	r0, [pc, #20]	; (800098c <serialPrintf+0x5c>)
 8000978:	f003 fe04 	bl	8004584 <HAL_UART_Transmit>
 800097c:	b023      	add	sp, #140	; 0x8c
 800097e:	e8bd 4030 	ldmia.w	sp!, {r4, r5, lr}
 8000982:	b004      	add	sp, #16
 8000984:	4770      	bx	lr
 8000986:	bf00      	nop
 8000988:	08005bb0 	.word	0x08005bb0
 800098c:	20000108 	.word	0x20000108

08000990 <TOUCH_AF_INT_Change>:
 8000990:	b57f      	push	{r0, r1, r2, r3, r4, r5, r6, lr}
 8000992:	2304      	movs	r3, #4
 8000994:	9301      	str	r3, [sp, #4]
 8000996:	2103      	movs	r1, #3
 8000998:	2301      	movs	r3, #1
 800099a:	e9cd 3103 	strd	r3, r1, [sp, #12]
 800099e:	4804      	ldr	r0, [pc, #16]	; (80009b0 <TOUCH_AF_INT_Change+0x20>)
 80009a0:	2300      	movs	r3, #0
 80009a2:	a901      	add	r1, sp, #4
 80009a4:	9302      	str	r3, [sp, #8]
 80009a6:	f001 fd75 	bl	8002494 <HAL_GPIO_Init>
 80009aa:	b007      	add	sp, #28
 80009ac:	f85d fb04 	ldr.w	pc, [sp], #4
 80009b0:	40021c00 	.word	0x40021c00

080009b4 <I2C_GT911_ReadRegister>:
 80009b4:	b5f0      	push	{r4, r5, r6, r7, lr}
 80009b6:	b085      	sub	sp, #20
 80009b8:	ba40      	rev16	r0, r0
 80009ba:	f242 7710 	movw	r7, #10000	; 0x2710
 80009be:	460d      	mov	r5, r1
 80009c0:	4616      	mov	r6, r2
 80009c2:	f8ad 000c 	strh.w	r0, [sp, #12]
 80009c6:	9700      	str	r7, [sp, #0]
 80009c8:	4818      	ldr	r0, [pc, #96]	; (8000a2c <I2C_GT911_ReadRegister+0x78>)
 80009ca:	2302      	movs	r3, #2
 80009cc:	aa03      	add	r2, sp, #12
 80009ce:	2128      	movs	r1, #40	; 0x28
 80009d0:	f001 fffc 	bl	80029cc <HAL_I2C_Master_Transmit>
 80009d4:	b190      	cbz	r0, 80009fc <I2C_GT911_ReadRegister+0x48>
 80009d6:	f001 fb71 	bl	80020bc <HAL_GetTick>
 80009da:	ee07 0a90 	vmov	s15, r0
 80009de:	eef8 7a67 	vcvt.f32.u32	s15, s15
 80009e2:	ee17 0a90 	vmov	r0, s15
 80009e6:	f7ff fdcf 	bl	8000588 <__aeabi_f2d>
 80009ea:	4602      	mov	r2, r0
 80009ec:	4810      	ldr	r0, [pc, #64]	; (8000a30 <I2C_GT911_ReadRegister+0x7c>)
 80009ee:	460b      	mov	r3, r1
 80009f0:	f7ff ff9e 	bl	8000930 <serialPrintf>
 80009f4:	beff      	bkpt	0x00ff
 80009f6:	2000      	movs	r0, #0
 80009f8:	b005      	add	sp, #20
 80009fa:	bdf0      	pop	{r4, r5, r6, r7, pc}
 80009fc:	480b      	ldr	r0, [pc, #44]	; (8000a2c <I2C_GT911_ReadRegister+0x78>)
 80009fe:	9700      	str	r7, [sp, #0]
 8000a00:	4633      	mov	r3, r6
 8000a02:	462a      	mov	r2, r5
 8000a04:	2128      	movs	r1, #40	; 0x28
 8000a06:	f002 f8b9 	bl	8002b7c <HAL_I2C_Master_Receive>
 8000a0a:	b168      	cbz	r0, 8000a28 <I2C_GT911_ReadRegister+0x74>
 8000a0c:	f001 fb56 	bl	80020bc <HAL_GetTick>
 8000a10:	ee07 0a90 	vmov	s15, r0
 8000a14:	eef8 7a67 	vcvt.f32.u32	s15, s15
 8000a18:	ee17 0a90 	vmov	r0, s15
 8000a1c:	f7ff fdb4 	bl	8000588 <__aeabi_f2d>
 8000a20:	4602      	mov	r2, r0
 8000a22:	460b      	mov	r3, r1
 8000a24:	4803      	ldr	r0, [pc, #12]	; (8000a34 <I2C_GT911_ReadRegister+0x80>)
 8000a26:	e7e3      	b.n	80009f0 <I2C_GT911_ReadRegister+0x3c>
 8000a28:	2001      	movs	r0, #1
 8000a2a:	e7e5      	b.n	80009f8 <I2C_GT911_ReadRegister+0x44>
 8000a2c:	2000014c 	.word	0x2000014c
 8000a30:	08005bbb 	.word	0x08005bbb
 8000a34:	08005bf4 	.word	0x08005bf4

08000a38 <I2C_GT911_WriteRegister>:
 8000a38:	b510      	push	{r4, lr}
 8000a3a:	b0c4      	sub	sp, #272	; 0x110
 8000a3c:	ba40      	rev16	r0, r0
 8000a3e:	f8ad 000c 	strh.w	r0, [sp, #12]
 8000a42:	b142      	cbz	r2, 8000a56 <I2C_GT911_WriteRegister+0x1e>
 8000a44:	f10d 000e 	add.w	r0, sp, #14
 8000a48:	2300      	movs	r3, #0
 8000a4a:	5ccc      	ldrb	r4, [r1, r3]
 8000a4c:	f800 4b01 	strb.w	r4, [r0], #1
 8000a50:	3301      	adds	r3, #1
 8000a52:	429a      	cmp	r2, r3
 8000a54:	dcf9      	bgt.n	8000a4a <I2C_GT911_WriteRegister+0x12>
 8000a56:	f242 7310 	movw	r3, #10000	; 0x2710
 8000a5a:	9300      	str	r3, [sp, #0]
 8000a5c:	480d      	ldr	r0, [pc, #52]	; (8000a94 <I2C_GT911_WriteRegister+0x5c>)
 8000a5e:	1c93      	adds	r3, r2, #2
 8000a60:	2128      	movs	r1, #40	; 0x28
 8000a62:	aa03      	add	r2, sp, #12
 8000a64:	f001 ffb2 	bl	80029cc <HAL_I2C_Master_Transmit>
 8000a68:	b190      	cbz	r0, 8000a90 <I2C_GT911_WriteRegister+0x58>
 8000a6a:	f001 fb27 	bl	80020bc <HAL_GetTick>
 8000a6e:	ee07 0a90 	vmov	s15, r0
 8000a72:	eef8 7a67 	vcvt.f32.u32	s15, s15
 8000a76:	ee17 0a90 	vmov	r0, s15
 8000a7a:	f7ff fd85 	bl	8000588 <__aeabi_f2d>
 8000a7e:	4602      	mov	r2, r0
 8000a80:	460b      	mov	r3, r1
 8000a82:	4805      	ldr	r0, [pc, #20]	; (8000a98 <I2C_GT911_WriteRegister+0x60>)
 8000a84:	f7ff ff54 	bl	8000930 <serialPrintf>
 8000a88:	beff      	bkpt	0x00ff
 8000a8a:	2000      	movs	r0, #0
 8000a8c:	b044      	add	sp, #272	; 0x110
 8000a8e:	bd10      	pop	{r4, pc}
 8000a90:	2001      	movs	r0, #1
 8000a92:	e7fb      	b.n	8000a8c <I2C_GT911_WriteRegister+0x54>
 8000a94:	2000014c 	.word	0x2000014c
 8000a98:	08005c2c 	.word	0x08005c2c

08000a9c <I2C_GT911_SendConfig>:
 8000a9c:	b537      	push	{r0, r1, r2, r4, r5, lr}
 8000a9e:	2301      	movs	r3, #1
 8000aa0:	f88d 3005 	strb.w	r3, [sp, #5]
 8000aa4:	4920      	ldr	r1, [pc, #128]	; (8000b28 <I2C_GT911_SendConfig+0x8c>)
 8000aa6:	2300      	movs	r3, #0
 8000aa8:	461a      	mov	r2, r3
 8000aaa:	f811 0b01 	ldrb.w	r0, [r1], #1
 8000aae:	3201      	adds	r2, #1
 8000ab0:	b2d2      	uxtb	r2, r2
 8000ab2:	4403      	add	r3, r0
 8000ab4:	2ab8      	cmp	r2, #184	; 0xb8
 8000ab6:	b2db      	uxtb	r3, r3
 8000ab8:	d1f7      	bne.n	8000aaa <I2C_GT911_SendConfig+0xe>
 8000aba:	425b      	negs	r3, r3
 8000abc:	491a      	ldr	r1, [pc, #104]	; (8000b28 <I2C_GT911_SendConfig+0x8c>)
 8000abe:	f88d 3004 	strb.w	r3, [sp, #4]
 8000ac2:	f248 0047 	movw	r0, #32839	; 0x8047
 8000ac6:	f7ff ffb7 	bl	8000a38 <I2C_GT911_WriteRegister>
 8000aca:	4604      	mov	r4, r0
 8000acc:	bb48      	cbnz	r0, 8000b22 <I2C_GT911_SendConfig+0x86>
 8000ace:	f001 faf5 	bl	80020bc <HAL_GetTick>
 8000ad2:	ee07 0a90 	vmov	s15, r0
 8000ad6:	eef8 7a67 	vcvt.f32.u32	s15, s15
 8000ada:	ee17 0a90 	vmov	r0, s15
 8000ade:	f7ff fd53 	bl	8000588 <__aeabi_f2d>
 8000ae2:	4602      	mov	r2, r0
 8000ae4:	460b      	mov	r3, r1
 8000ae6:	4811      	ldr	r0, [pc, #68]	; (8000b2c <I2C_GT911_SendConfig+0x90>)
 8000ae8:	f7ff ff22 	bl	8000930 <serialPrintf>
 8000aec:	2202      	movs	r2, #2
 8000aee:	a901      	add	r1, sp, #4
 8000af0:	f248 00ff 	movw	r0, #33023	; 0x80ff
 8000af4:	f7ff ffa0 	bl	8000a38 <I2C_GT911_WriteRegister>
 8000af8:	4605      	mov	r5, r0
 8000afa:	b978      	cbnz	r0, 8000b1c <I2C_GT911_SendConfig+0x80>
 8000afc:	f001 fade 	bl	80020bc <HAL_GetTick>
 8000b00:	ee07 0a90 	vmov	s15, r0
 8000b04:	eef8 7a67 	vcvt.f32.u32	s15, s15
 8000b08:	462c      	mov	r4, r5
 8000b0a:	ee17 0a90 	vmov	r0, s15
 8000b0e:	f7ff fd3b 	bl	8000588 <__aeabi_f2d>
 8000b12:	4602      	mov	r2, r0
 8000b14:	460b      	mov	r3, r1
 8000b16:	4806      	ldr	r0, [pc, #24]	; (8000b30 <I2C_GT911_SendConfig+0x94>)
 8000b18:	f7ff ff0a 	bl	8000930 <serialPrintf>
 8000b1c:	4620      	mov	r0, r4
 8000b1e:	b003      	add	sp, #12
 8000b20:	bd30      	pop	{r4, r5, pc}
 8000b22:	2401      	movs	r4, #1
 8000b24:	e7e2      	b.n	8000aec <I2C_GT911_SendConfig+0x50>
 8000b26:	bf00      	nop
 8000b28:	08005ffc 	.word	0x08005ffc
 8000b2c:	08005c54 	.word	0x08005c54
 8000b30:	08005c7d 	.word	0x08005c7d

08000b34 <touchPanelInit>:
 8000b34:	e92d 41f0 	stmdb	sp!, {r4, r5, r6, r7, r8, lr}
 8000b38:	b088      	sub	sp, #32
 8000b3a:	2400      	movs	r4, #0
 8000b3c:	9402      	str	r4, [sp, #8]
 8000b3e:	f001 fabd 	bl	80020bc <HAL_GetTick>
 8000b42:	ee07 0a90 	vmov	s15, r0
 8000b46:	eef8 7a67 	vcvt.f32.u32	s15, s15
 8000b4a:	2601      	movs	r6, #1
 8000b4c:	ee17 0a90 	vmov	r0, s15
 8000b50:	f7ff fd1a 	bl	8000588 <__aeabi_f2d>
 8000b54:	460b      	mov	r3, r1
 8000b56:	4602      	mov	r2, r0
 8000b58:	48a3      	ldr	r0, [pc, #652]	; (8000de8 <touchPanelInit+0x2b4>)
 8000b5a:	f7ff fee9 	bl	8000930 <serialPrintf>
 8000b5e:	f44f 6780 	mov.w	r7, #1024	; 0x400
 8000b62:	48a2      	ldr	r0, [pc, #648]	; (8000dec <touchPanelInit+0x2b8>)
 8000b64:	f04f 0803 	mov.w	r8, #3
 8000b68:	a903      	add	r1, sp, #12
 8000b6a:	e9cd 7603 	strd	r7, r6, [sp, #12]
 8000b6e:	e9cd 4805 	strd	r4, r8, [sp, #20]
 8000b72:	f001 fc8f 	bl	8002494 <HAL_GPIO_Init>
 8000b76:	4622      	mov	r2, r4
 8000b78:	489c      	ldr	r0, [pc, #624]	; (8000dec <touchPanelInit+0x2b8>)
 8000b7a:	4639      	mov	r1, r7
 8000b7c:	f001 fd76 	bl	800266c <HAL_GPIO_WritePin>
 8000b80:	2504      	movs	r5, #4
 8000b82:	489b      	ldr	r0, [pc, #620]	; (8000df0 <touchPanelInit+0x2bc>)
 8000b84:	a903      	add	r1, sp, #12
 8000b86:	e9cd 5603 	strd	r5, r6, [sp, #12]
 8000b8a:	e9cd 4805 	strd	r4, r8, [sp, #20]
 8000b8e:	f001 fc81 	bl	8002494 <HAL_GPIO_Init>
 8000b92:	4897      	ldr	r0, [pc, #604]	; (8000df0 <touchPanelInit+0x2bc>)
 8000b94:	4622      	mov	r2, r4
 8000b96:	4629      	mov	r1, r5
 8000b98:	f001 fd68 	bl	800266c <HAL_GPIO_WritePin>
 8000b9c:	4893      	ldr	r0, [pc, #588]	; (8000dec <touchPanelInit+0x2b8>)
 8000b9e:	4622      	mov	r2, r4
 8000ba0:	4639      	mov	r1, r7
 8000ba2:	f001 fd63 	bl	800266c <HAL_GPIO_WritePin>
 8000ba6:	4632      	mov	r2, r6
 8000ba8:	4629      	mov	r1, r5
 8000baa:	4891      	ldr	r0, [pc, #580]	; (8000df0 <touchPanelInit+0x2bc>)
 8000bac:	f001 fd5e 	bl	800266c <HAL_GPIO_WritePin>
 8000bb0:	4630      	mov	r0, r6
 8000bb2:	f001 fa89 	bl	80020c8 <HAL_Delay>
 8000bb6:	4632      	mov	r2, r6
 8000bb8:	4639      	mov	r1, r7
 8000bba:	488c      	ldr	r0, [pc, #560]	; (8000dec <touchPanelInit+0x2b8>)
 8000bbc:	f001 fd56 	bl	800266c <HAL_GPIO_WritePin>
 8000bc0:	2006      	movs	r0, #6
 8000bc2:	f001 fa81 	bl	80020c8 <HAL_Delay>
 8000bc6:	4622      	mov	r2, r4
 8000bc8:	4629      	mov	r1, r5
 8000bca:	4889      	ldr	r0, [pc, #548]	; (8000df0 <touchPanelInit+0x2bc>)
 8000bcc:	f001 fd4e 	bl	800266c <HAL_GPIO_WritePin>
 8000bd0:	2037      	movs	r0, #55	; 0x37
 8000bd2:	f001 fa79 	bl	80020c8 <HAL_Delay>
 8000bd6:	f7ff fedb 	bl	8000990 <TOUCH_AF_INT_Change>
 8000bda:	2032      	movs	r0, #50	; 0x32
 8000bdc:	f001 fa74 	bl	80020c8 <HAL_Delay>
 8000be0:	f001 fa6c 	bl	80020bc <HAL_GetTick>
 8000be4:	ee07 0a90 	vmov	s15, r0
 8000be8:	eef8 7a67 	vcvt.f32.u32	s15, s15
 8000bec:	ee17 0a90 	vmov	r0, s15
 8000bf0:	f7ff fcca 	bl	8000588 <__aeabi_f2d>
 8000bf4:	4602      	mov	r2, r0
 8000bf6:	460b      	mov	r3, r1
 8000bf8:	487e      	ldr	r0, [pc, #504]	; (8000df4 <touchPanelInit+0x2c0>)
 8000bfa:	f7ff fe99 	bl	8000930 <serialPrintf>
 8000bfe:	462a      	mov	r2, r5
 8000c00:	a902      	add	r1, sp, #8
 8000c02:	f248 1040 	movw	r0, #33088	; 0x8140
 8000c06:	f7ff fed5 	bl	80009b4 <I2C_GT911_ReadRegister>
 8000c0a:	b970      	cbnz	r0, 8000c2a <touchPanelInit+0xf6>
 8000c0c:	f001 fa56 	bl	80020bc <HAL_GetTick>
 8000c10:	ee07 0a90 	vmov	s15, r0
 8000c14:	eef8 7a67 	vcvt.f32.u32	s15, s15
 8000c18:	ee17 0a90 	vmov	r0, s15
 8000c1c:	f7ff fcb4 	bl	8000588 <__aeabi_f2d>
 8000c20:	4602      	mov	r2, r0
 8000c22:	460b      	mov	r3, r1
 8000c24:	4874      	ldr	r0, [pc, #464]	; (8000df8 <touchPanelInit+0x2c4>)
 8000c26:	f7ff fe83 	bl	8000930 <serialPrintf>
 8000c2a:	4974      	ldr	r1, [pc, #464]	; (8000dfc <touchPanelInit+0x2c8>)
 8000c2c:	a802      	add	r0, sp, #8
 8000c2e:	f7ff fadf 	bl	80001f0 <strcmp>
 8000c32:	2800      	cmp	r0, #0
 8000c34:	f040 80c5 	bne.w	8000dc2 <touchPanelInit+0x28e>
 8000c38:	f001 fa40 	bl	80020bc <HAL_GetTick>
 8000c3c:	ee07 0a90 	vmov	s15, r0
 8000c40:	eef8 7a67 	vcvt.f32.u32	s15, s15
 8000c44:	ee17 0a90 	vmov	r0, s15
 8000c48:	f7ff fc9e 	bl	8000588 <__aeabi_f2d>
 8000c4c:	4602      	mov	r2, r0
 8000c4e:	460b      	mov	r3, r1
 8000c50:	486b      	ldr	r0, [pc, #428]	; (8000e00 <touchPanelInit+0x2cc>)
 8000c52:	f7ff fe6d 	bl	8000930 <serialPrintf>
 8000c56:	2302      	movs	r3, #2
 8000c58:	2201      	movs	r2, #1
 8000c5a:	a902      	add	r1, sp, #8
 8000c5c:	f248 0040 	movw	r0, #32832	; 0x8040
 8000c60:	f88d 3008 	strb.w	r3, [sp, #8]
 8000c64:	f7ff fee8 	bl	8000a38 <I2C_GT911_WriteRegister>
 8000c68:	b970      	cbnz	r0, 8000c88 <touchPanelInit+0x154>
 8000c6a:	f001 fa27 	bl	80020bc <HAL_GetTick>
 8000c6e:	ee07 0a90 	vmov	s15, r0
 8000c72:	eef8 7a67 	vcvt.f32.u32	s15, s15
 8000c76:	ee17 0a90 	vmov	r0, s15
 8000c7a:	f7ff fc85 	bl	8000588 <__aeabi_f2d>
 8000c7e:	4602      	mov	r2, r0
 8000c80:	460b      	mov	r3, r1
 8000c82:	4860      	ldr	r0, [pc, #384]	; (8000e04 <touchPanelInit+0x2d0>)
 8000c84:	f7ff fe54 	bl	8000930 <serialPrintf>
 8000c88:	2201      	movs	r2, #1
 8000c8a:	a902      	add	r1, sp, #8
 8000c8c:	f248 0047 	movw	r0, #32839	; 0x8047
 8000c90:	f7ff fe90 	bl	80009b4 <I2C_GT911_ReadRegister>
 8000c94:	b970      	cbnz	r0, 8000cb4 <touchPanelInit+0x180>
 8000c96:	f001 fa11 	bl	80020bc <HAL_GetTick>
 8000c9a:	ee07 0a90 	vmov	s15, r0
 8000c9e:	eef8 7a67 	vcvt.f32.u32	s15, s15
 8000ca2:	ee17 0a90 	vmov	r0, s15
 8000ca6:	f7ff fc6f 	bl	8000588 <__aeabi_f2d>
 8000caa:	4602      	mov	r2, r0
 8000cac:	460b      	mov	r3, r1
 8000cae:	4856      	ldr	r0, [pc, #344]	; (8000e08 <touchPanelInit+0x2d4>)
 8000cb0:	f7ff fe3e 	bl	8000930 <serialPrintf>
 8000cb4:	f001 fa02 	bl	80020bc <HAL_GetTick>
 8000cb8:	ee07 0a90 	vmov	s15, r0
 8000cbc:	eef8 7a67 	vcvt.f32.u32	s15, s15
 8000cc0:	ee17 0a90 	vmov	r0, s15
 8000cc4:	f7ff fc60 	bl	8000588 <__aeabi_f2d>
 8000cc8:	460b      	mov	r3, r1
 8000cca:	f89d 1008 	ldrb.w	r1, [sp, #8]
 8000cce:	9100      	str	r1, [sp, #0]
 8000cd0:	4602      	mov	r2, r0
 8000cd2:	484e      	ldr	r0, [pc, #312]	; (8000e0c <touchPanelInit+0x2d8>)
 8000cd4:	f7ff fe2c 	bl	8000930 <serialPrintf>
 8000cd8:	f89d 3008 	ldrb.w	r3, [sp, #8]
 8000cdc:	2b6c      	cmp	r3, #108	; 0x6c
 8000cde:	d822      	bhi.n	8000d26 <touchPanelInit+0x1f2>
 8000ce0:	f001 f9ec 	bl	80020bc <HAL_GetTick>
 8000ce4:	ee07 0a90 	vmov	s15, r0
 8000ce8:	eef8 7a67 	vcvt.f32.u32	s15, s15
 8000cec:	ee17 0a90 	vmov	r0, s15
 8000cf0:	f7ff fc4a 	bl	8000588 <__aeabi_f2d>
 8000cf4:	460b      	mov	r3, r1
 8000cf6:	216c      	movs	r1, #108	; 0x6c
 8000cf8:	4602      	mov	r2, r0
 8000cfa:	9100      	str	r1, [sp, #0]
 8000cfc:	4844      	ldr	r0, [pc, #272]	; (8000e10 <touchPanelInit+0x2dc>)
 8000cfe:	f7ff fe17 	bl	8000930 <serialPrintf>
 8000d02:	f7ff fecb 	bl	8000a9c <I2C_GT911_SendConfig>
 8000d06:	b970      	cbnz	r0, 8000d26 <touchPanelInit+0x1f2>
 8000d08:	f001 f9d8 	bl	80020bc <HAL_GetTick>
 8000d0c:	ee07 0a90 	vmov	s15, r0
 8000d10:	eef8 7a67 	vcvt.f32.u32	s15, s15
 8000d14:	ee17 0a90 	vmov	r0, s15
 8000d18:	f7ff fc36 	bl	8000588 <__aeabi_f2d>
 8000d1c:	4602      	mov	r2, r0
 8000d1e:	460b      	mov	r3, r1
 8000d20:	483c      	ldr	r0, [pc, #240]	; (8000e14 <touchPanelInit+0x2e0>)
 8000d22:	f7ff fe05 	bl	8000930 <serialPrintf>
 8000d26:	2202      	movs	r2, #2
 8000d28:	a902      	add	r1, sp, #8
 8000d2a:	f248 1044 	movw	r0, #33092	; 0x8144
 8000d2e:	f7ff fe41 	bl	80009b4 <I2C_GT911_ReadRegister>
 8000d32:	bb60      	cbnz	r0, 8000d8e <touchPanelInit+0x25a>
 8000d34:	f001 f9c2 	bl	80020bc <HAL_GetTick>
 8000d38:	ee07 0a90 	vmov	s15, r0
 8000d3c:	eef8 7a67 	vcvt.f32.u32	s15, s15
 8000d40:	ee17 0a90 	vmov	r0, s15
 8000d44:	f7ff fc20 	bl	8000588 <__aeabi_f2d>
 8000d48:	4602      	mov	r2, r0
 8000d4a:	460b      	mov	r3, r1
 8000d4c:	4832      	ldr	r0, [pc, #200]	; (8000e18 <touchPanelInit+0x2e4>)
 8000d4e:	f7ff fdef 	bl	8000930 <serialPrintf>
 8000d52:	200a      	movs	r0, #10
 8000d54:	f001 f9b8 	bl	80020c8 <HAL_Delay>
 8000d58:	2300      	movs	r3, #0
 8000d5a:	2201      	movs	r2, #1
 8000d5c:	a902      	add	r1, sp, #8
 8000d5e:	f248 0040 	movw	r0, #32832	; 0x8040
 8000d62:	f88d 3008 	strb.w	r3, [sp, #8]
 8000d66:	f7ff fe67 	bl	8000a38 <I2C_GT911_WriteRegister>
 8000d6a:	b970      	cbnz	r0, 8000d8a <touchPanelInit+0x256>
 8000d6c:	f001 f9a6 	bl	80020bc <HAL_GetTick>
 8000d70:	ee07 0a90 	vmov	s15, r0
 8000d74:	eef8 7a67 	vcvt.f32.u32	s15, s15
 8000d78:	ee17 0a90 	vmov	r0, s15
 8000d7c:	f7ff fc04 	bl	8000588 <__aeabi_f2d>
 8000d80:	4602      	mov	r2, r0
 8000d82:	460b      	mov	r3, r1
 8000d84:	481f      	ldr	r0, [pc, #124]	; (8000e04 <touchPanelInit+0x2d0>)
 8000d86:	f7ff fdd3 	bl	8000930 <serialPrintf>
 8000d8a:	2001      	movs	r0, #1
 8000d8c:	e029      	b.n	8000de2 <touchPanelInit+0x2ae>
 8000d8e:	f89d 2009 	ldrb.w	r2, [sp, #9]
 8000d92:	f89d 3008 	ldrb.w	r3, [sp, #8]
 8000d96:	4c21      	ldr	r4, [pc, #132]	; (8000e1c <touchPanelInit+0x2e8>)
 8000d98:	eb03 2302 	add.w	r3, r3, r2, lsl #8
 8000d9c:	8023      	strh	r3, [r4, #0]
 8000d9e:	f001 f98d 	bl	80020bc <HAL_GetTick>
 8000da2:	ee07 0a90 	vmov	s15, r0
 8000da6:	eef8 7a67 	vcvt.f32.u32	s15, s15
 8000daa:	ee17 0a90 	vmov	r0, s15
 8000dae:	f7ff fbeb 	bl	8000588 <__aeabi_f2d>
 8000db2:	460b      	mov	r3, r1
 8000db4:	8821      	ldrh	r1, [r4, #0]
 8000db6:	9100      	str	r1, [sp, #0]
 8000db8:	4602      	mov	r2, r0
 8000dba:	4819      	ldr	r0, [pc, #100]	; (8000e20 <touchPanelInit+0x2ec>)
 8000dbc:	f7ff fdb8 	bl	8000930 <serialPrintf>
 8000dc0:	e7c7      	b.n	8000d52 <touchPanelInit+0x21e>
 8000dc2:	f001 f97b 	bl	80020bc <HAL_GetTick>
 8000dc6:	ee07 0a90 	vmov	s15, r0
 8000dca:	eef8 7a67 	vcvt.f32.u32	s15, s15
 8000dce:	ee17 0a90 	vmov	r0, s15
 8000dd2:	f7ff fbd9 	bl	8000588 <__aeabi_f2d>
 8000dd6:	4602      	mov	r2, r0
 8000dd8:	460b      	mov	r3, r1
 8000dda:	4812      	ldr	r0, [pc, #72]	; (8000e24 <touchPanelInit+0x2f0>)
 8000ddc:	f7ff fda8 	bl	8000930 <serialPrintf>
 8000de0:	2000      	movs	r0, #0
 8000de2:	b008      	add	sp, #32
 8000de4:	e8bd 81f0 	ldmia.w	sp!, {r4, r5, r6, r7, r8, pc}
 8000de8:	08005caf 	.word	0x08005caf
 8000dec:	40021400 	.word	0x40021400
 8000df0:	40021c00 	.word	0x40021c00
 8000df4:	08005cd1 	.word	0x08005cd1
 8000df8:	08005cf0 	.word	0x08005cf0
 8000dfc:	08005d1c 	.word	0x08005d1c
 8000e00:	08005d20 	.word	0x08005d20
 8000e04:	08005d3c 	.word	0x08005d3c
 8000e08:	08005d72 	.word	0x08005d72
 8000e0c:	08005daa 	.word	0x08005daa
 8000e10:	08005dc5 	.word	0x08005dc5
 8000e14:	08005de3 	.word	0x08005de3
 8000e18:	08005e14 	.word	0x08005e14
 8000e1c:	20000090 	.word	0x20000090
 8000e20:	08005e49 	.word	0x08005e49
 8000e24:	08005e66 	.word	0x08005e66

08000e28 <touchPanelDeInit>:
 8000e28:	b508      	push	{r3, lr}
 8000e2a:	f001 f947 	bl	80020bc <HAL_GetTick>
 8000e2e:	ee07 0a90 	vmov	s15, r0
 8000e32:	eef8 7a67 	vcvt.f32.u32	s15, s15
 8000e36:	ee17 0a90 	vmov	r0, s15
 8000e3a:	f7ff fba5 	bl	8000588 <__aeabi_f2d>
 8000e3e:	4602      	mov	r2, r0
 8000e40:	460b      	mov	r3, r1
 8000e42:	4802      	ldr	r0, [pc, #8]	; (8000e4c <touchPanelDeInit+0x24>)
 8000e44:	f7ff fd74 	bl	8000930 <serialPrintf>
 8000e48:	beff      	bkpt	0x00ff
 8000e4a:	bd08      	pop	{r3, pc}
 8000e4c:	08005e83 	.word	0x08005e83

08000e50 <touchPanelRead>:
 8000e50:	b57f      	push	{r0, r1, r2, r3, r4, r5, r6, lr}
 8000e52:	2300      	movs	r3, #0
 8000e54:	f88d 300e 	strb.w	r3, [sp, #14]
 8000e58:	f001 f930 	bl	80020bc <HAL_GetTick>
 8000e5c:	4604      	mov	r4, r0
 8000e5e:	2201      	movs	r2, #1
 8000e60:	f10d 010e 	add.w	r1, sp, #14
 8000e64:	f248 104e 	movw	r0, #33102	; 0x814e
 8000e68:	f7ff fda4 	bl	80009b4 <I2C_GT911_ReadRegister>
 8000e6c:	bb00      	cbnz	r0, 8000eb0 <touchPanelRead+0x60>
 8000e6e:	f100 4080 	add.w	r0, r0, #1073741824	; 0x40000000
 8000e72:	2104      	movs	r1, #4
 8000e74:	2201      	movs	r2, #1
 8000e76:	f500 3004 	add.w	r0, r0, #135168	; 0x21000
 8000e7a:	f001 fbf7 	bl	800266c <HAL_GPIO_WritePin>
 8000e7e:	4a8f      	ldr	r2, [pc, #572]	; (80010bc <touchPanelRead+0x26c>)
 8000e80:	8813      	ldrh	r3, [r2, #0]
 8000e82:	3301      	adds	r3, #1
 8000e84:	8013      	strh	r3, [r2, #0]
 8000e86:	f001 f919 	bl	80020bc <HAL_GetTick>
 8000e8a:	ee07 0a90 	vmov	s15, r0
 8000e8e:	eef8 7a67 	vcvt.f32.u32	s15, s15
 8000e92:	ee17 0a90 	vmov	r0, s15
 8000e96:	f7ff fb77 	bl	8000588 <__aeabi_f2d>
 8000e9a:	4602      	mov	r2, r0
 8000e9c:	4888      	ldr	r0, [pc, #544]	; (80010c0 <touchPanelRead+0x270>)
 8000e9e:	460b      	mov	r3, r1
 8000ea0:	f7ff fd46 	bl	8000930 <serialPrintf>
 8000ea4:	f7ff ffc0 	bl	8000e28 <touchPanelDeInit>
 8000ea8:	f7ff fe44 	bl	8000b34 <touchPanelInit>
 8000eac:	b004      	add	sp, #16
 8000eae:	bd70      	pop	{r4, r5, r6, pc}
 8000eb0:	f99d 300e 	ldrsb.w	r3, [sp, #14]
 8000eb4:	2b00      	cmp	r3, #0
 8000eb6:	da3b      	bge.n	8000f30 <touchPanelRead+0xe0>
 8000eb8:	f001 f900 	bl	80020bc <HAL_GetTick>
 8000ebc:	ee07 0a90 	vmov	s15, r0
 8000ec0:	eef8 7a67 	vcvt.f32.u32	s15, s15
 8000ec4:	ee17 0a90 	vmov	r0, s15
 8000ec8:	f7ff fb5e 	bl	8000588 <__aeabi_f2d>
 8000ecc:	460b      	mov	r3, r1
 8000ece:	f89d 100e 	ldrb.w	r1, [sp, #14]
 8000ed2:	9100      	str	r1, [sp, #0]
 8000ed4:	4602      	mov	r2, r0
 8000ed6:	487b      	ldr	r0, [pc, #492]	; (80010c4 <touchPanelRead+0x274>)
 8000ed8:	f7ff fd2a 	bl	8000930 <serialPrintf>
 8000edc:	f99d 300e 	ldrsb.w	r3, [sp, #14]
 8000ee0:	f89d 200e 	ldrb.w	r2, [sp, #14]
 8000ee4:	2b00      	cmp	r3, #0
 8000ee6:	db2c      	blt.n	8000f42 <touchPanelRead+0xf2>
 8000ee8:	2300      	movs	r3, #0
 8000eea:	2201      	movs	r2, #1
 8000eec:	f10d 010f 	add.w	r1, sp, #15
 8000ef0:	f248 104e 	movw	r0, #33102	; 0x814e
 8000ef4:	f88d 300f 	strb.w	r3, [sp, #15]
 8000ef8:	f7ff fd9e 	bl	8000a38 <I2C_GT911_WriteRegister>
 8000efc:	b970      	cbnz	r0, 8000f1c <touchPanelRead+0xcc>
 8000efe:	f001 f8dd 	bl	80020bc <HAL_GetTick>
 8000f02:	ee07 0a90 	vmov	s15, r0
 8000f06:	eef8 7a67 	vcvt.f32.u32	s15, s15
 8000f0a:	ee17 0a90 	vmov	r0, s15
 8000f0e:	f7ff fb3b 	bl	8000588 <__aeabi_f2d>
 8000f12:	4602      	mov	r2, r0
 8000f14:	460b      	mov	r3, r1
 8000f16:	486c      	ldr	r0, [pc, #432]	; (80010c8 <touchPanelRead+0x278>)
 8000f18:	f7ff fd0a 	bl	8000930 <serialPrintf>
 8000f1c:	4b6b      	ldr	r3, [pc, #428]	; (80010cc <touchPanelRead+0x27c>)
 8000f1e:	781b      	ldrb	r3, [r3, #0]
 8000f20:	2b04      	cmp	r3, #4
 8000f22:	f200 80bc 	bhi.w	800109e <touchPanelRead+0x24e>
 8000f26:	e8df f003 	tbb	[pc, r3]
 8000f2a:	9072      	.short	0x9072
 8000f2c:	ac82      	.short	0xac82
 8000f2e:	9e          	.byte	0x9e
 8000f2f:	00          	.byte	0x00
 8000f30:	2001      	movs	r0, #1
 8000f32:	f001 f8c9 	bl	80020c8 <HAL_Delay>
 8000f36:	f001 f8c1 	bl	80020bc <HAL_GetTick>
 8000f3a:	1b03      	subs	r3, r0, r4
 8000f3c:	2b02      	cmp	r3, #2
 8000f3e:	d98e      	bls.n	8000e5e <touchPanelRead+0xe>
 8000f40:	e7ba      	b.n	8000eb8 <touchPanelRead+0x68>
 8000f42:	f002 020f 	and.w	r2, r2, #15
 8000f46:	1e53      	subs	r3, r2, #1
 8000f48:	2b04      	cmp	r3, #4
 8000f4a:	d850      	bhi.n	8000fee <touchPanelRead+0x19e>
 8000f4c:	4e60      	ldr	r6, [pc, #384]	; (80010d0 <touchPanelRead+0x280>)
 8000f4e:	eb02 0282 	add.w	r2, r2, r2, lsl #2
 8000f52:	0052      	lsls	r2, r2, #1
 8000f54:	4631      	mov	r1, r6
 8000f56:	f248 104f 	movw	r0, #33103	; 0x814f
 8000f5a:	f7ff fd2b 	bl	80009b4 <I2C_GT911_ReadRegister>
 8000f5e:	b9c8      	cbnz	r0, 8000f94 <touchPanelRead+0x144>
 8000f60:	f100 4080 	add.w	r0, r0, #1073741824	; 0x40000000
 8000f64:	2104      	movs	r1, #4
 8000f66:	2201      	movs	r2, #1
 8000f68:	f500 3004 	add.w	r0, r0, #135168	; 0x21000
 8000f6c:	f001 fb7e 	bl	800266c <HAL_GPIO_WritePin>
 8000f70:	4a52      	ldr	r2, [pc, #328]	; (80010bc <touchPanelRead+0x26c>)
 8000f72:	8813      	ldrh	r3, [r2, #0]
 8000f74:	3301      	adds	r3, #1
 8000f76:	8013      	strh	r3, [r2, #0]
 8000f78:	f001 f8a0 	bl	80020bc <HAL_GetTick>
 8000f7c:	ee07 0a90 	vmov	s15, r0
 8000f80:	eef8 7a67 	vcvt.f32.u32	s15, s15
 8000f84:	ee17 0a90 	vmov	r0, s15
 8000f88:	f7ff fafe 	bl	8000588 <__aeabi_f2d>
 8000f8c:	4602      	mov	r2, r0
 8000f8e:	460b      	mov	r3, r1
 8000f90:	4850      	ldr	r0, [pc, #320]	; (80010d4 <touchPanelRead+0x284>)
 8000f92:	e785      	b.n	8000ea0 <touchPanelRead+0x50>
 8000f94:	4b4d      	ldr	r3, [pc, #308]	; (80010cc <touchPanelRead+0x27c>)
 8000f96:	8874      	ldrh	r4, [r6, #2]
 8000f98:	781d      	ldrb	r5, [r3, #0]
 8000f9a:	88b0      	ldrh	r0, [r6, #4]
 8000f9c:	f015 0ffd 	tst.w	r5, #253	; 0xfd
 8000fa0:	d001      	beq.n	8000fa6 <touchPanelRead+0x156>
 8000fa2:	2d04      	cmp	r5, #4
 8000fa4:	d108      	bne.n	8000fb8 <touchPanelRead+0x168>
 8000fa6:	b224      	sxth	r4, r4
 8000fa8:	b200      	sxth	r0, r0
 8000faa:	2201      	movs	r2, #1
 8000fac:	701a      	strb	r2, [r3, #0]
 8000fae:	805c      	strh	r4, [r3, #2]
 8000fb0:	80dc      	strh	r4, [r3, #6]
 8000fb2:	8098      	strh	r0, [r3, #4]
 8000fb4:	8118      	strh	r0, [r3, #8]
 8000fb6:	e797      	b.n	8000ee8 <touchPanelRead+0x98>
 8000fb8:	8859      	ldrh	r1, [r3, #2]
 8000fba:	889a      	ldrh	r2, [r3, #4]
 8000fbc:	1a61      	subs	r1, r4, r1
 8000fbe:	1a82      	subs	r2, r0, r2
 8000fc0:	b209      	sxth	r1, r1
 8000fc2:	b212      	sxth	r2, r2
 8000fc4:	2d03      	cmp	r5, #3
 8000fc6:	8159      	strh	r1, [r3, #10]
 8000fc8:	819a      	strh	r2, [r3, #12]
 8000fca:	d00b      	beq.n	8000fe4 <touchPanelRead+0x194>
 8000fcc:	2900      	cmp	r1, #0
 8000fce:	bfb8      	it	lt
 8000fd0:	4249      	neglt	r1, r1
 8000fd2:	b289      	uxth	r1, r1
 8000fd4:	2905      	cmp	r1, #5
 8000fd6:	d805      	bhi.n	8000fe4 <touchPanelRead+0x194>
 8000fd8:	2a00      	cmp	r2, #0
 8000fda:	bfb8      	it	lt
 8000fdc:	4252      	neglt	r2, r2
 8000fde:	b292      	uxth	r2, r2
 8000fe0:	2a05      	cmp	r2, #5
 8000fe2:	d981      	bls.n	8000ee8 <touchPanelRead+0x98>
 8000fe4:	2203      	movs	r2, #3
 8000fe6:	701a      	strb	r2, [r3, #0]
 8000fe8:	805c      	strh	r4, [r3, #2]
 8000fea:	8098      	strh	r0, [r3, #4]
 8000fec:	e77c      	b.n	8000ee8 <touchPanelRead+0x98>
 8000fee:	4b37      	ldr	r3, [pc, #220]	; (80010cc <touchPanelRead+0x27c>)
 8000ff0:	781a      	ldrb	r2, [r3, #0]
 8000ff2:	2a03      	cmp	r2, #3
 8000ff4:	d102      	bne.n	8000ffc <touchPanelRead+0x1ac>
 8000ff6:	2204      	movs	r2, #4
 8000ff8:	701a      	strb	r2, [r3, #0]
 8000ffa:	e775      	b.n	8000ee8 <touchPanelRead+0x98>
 8000ffc:	2a01      	cmp	r2, #1
 8000ffe:	d101      	bne.n	8001004 <touchPanelRead+0x1b4>
 8001000:	2202      	movs	r2, #2
 8001002:	e7f9      	b.n	8000ff8 <touchPanelRead+0x1a8>
 8001004:	2a04      	cmp	r2, #4
 8001006:	f43f af6f 	beq.w	8000ee8 <touchPanelRead+0x98>
 800100a:	2200      	movs	r2, #0
 800100c:	e7f4      	b.n	8000ff8 <touchPanelRead+0x1a8>
 800100e:	f001 f855 	bl	80020bc <HAL_GetTick>
 8001012:	ee07 0a90 	vmov	s15, r0
 8001016:	eef8 7a67 	vcvt.f32.u32	s15, s15
 800101a:	ee17 0a90 	vmov	r0, s15
 800101e:	f7ff fab3 	bl	8000588 <__aeabi_f2d>
 8001022:	4602      	mov	r2, r0
 8001024:	482c      	ldr	r0, [pc, #176]	; (80010d8 <touchPanelRead+0x288>)
 8001026:	460b      	mov	r3, r1
 8001028:	f7ff fc82 	bl	8000930 <serialPrintf>
 800102c:	e73e      	b.n	8000eac <touchPanelRead+0x5c>
 800102e:	f001 f845 	bl	80020bc <HAL_GetTick>
 8001032:	ee07 0a90 	vmov	s15, r0
 8001036:	eef8 7a67 	vcvt.f32.u32	s15, s15
 800103a:	ee17 0a90 	vmov	r0, s15
 800103e:	f7ff faa3 	bl	8000588 <__aeabi_f2d>
 8001042:	4602      	mov	r2, r0
 8001044:	460b      	mov	r3, r1
 8001046:	4825      	ldr	r0, [pc, #148]	; (80010dc <touchPanelRead+0x28c>)
 8001048:	e7ee      	b.n	8001028 <touchPanelRead+0x1d8>
 800104a:	f001 f837 	bl	80020bc <HAL_GetTick>
 800104e:	ee07 0a90 	vmov	s15, r0
 8001052:	eef8 7a67 	vcvt.f32.u32	s15, s15
 8001056:	ee17 0a90 	vmov	r0, s15
 800105a:	f7ff fa95 	bl	8000588 <__aeabi_f2d>
 800105e:	4602      	mov	r2, r0
 8001060:	460b      	mov	r3, r1
 8001062:	481f      	ldr	r0, [pc, #124]	; (80010e0 <touchPanelRead+0x290>)
 8001064:	e7e0      	b.n	8001028 <touchPanelRead+0x1d8>
 8001066:	f001 f829 	bl	80020bc <HAL_GetTick>
 800106a:	ee07 0a90 	vmov	s15, r0
 800106e:	eef8 7a67 	vcvt.f32.u32	s15, s15
 8001072:	ee17 0a90 	vmov	r0, s15
 8001076:	f7ff fa87 	bl	8000588 <__aeabi_f2d>
 800107a:	4602      	mov	r2, r0
 800107c:	460b      	mov	r3, r1
 800107e:	4819      	ldr	r0, [pc, #100]	; (80010e4 <touchPanelRead+0x294>)
 8001080:	e7d2      	b.n	8001028 <touchPanelRead+0x1d8>
 8001082:	f001 f81b 	bl	80020bc <HAL_GetTick>
 8001086:	ee07 0a90 	vmov	s15, r0
 800108a:	eef8 7a67 	vcvt.f32.u32	s15, s15
 800108e:	ee17 0a90 	vmov	r0, s15
 8001092:	f7ff fa79 	bl	8000588 <__aeabi_f2d>
 8001096:	4602      	mov	r2, r0
 8001098:	460b      	mov	r3, r1
 800109a:	4813      	ldr	r0, [pc, #76]	; (80010e8 <touchPanelRead+0x298>)
 800109c:	e7c4      	b.n	8001028 <touchPanelRead+0x1d8>
 800109e:	f001 f80d 	bl	80020bc <HAL_GetTick>
 80010a2:	ee07 0a90 	vmov	s15, r0
 80010a6:	eef8 7a67 	vcvt.f32.u32	s15, s15
 80010aa:	ee17 0a90 	vmov	r0, s15
 80010ae:	f7ff fa6b 	bl	8000588 <__aeabi_f2d>
 80010b2:	4602      	mov	r2, r0
 80010b4:	460b      	mov	r3, r1
 80010b6:	480d      	ldr	r0, [pc, #52]	; (80010ec <touchPanelRead+0x29c>)
 80010b8:	e7b6      	b.n	8001028 <touchPanelRead+0x1d8>
 80010ba:	bf00      	nop
 80010bc:	20000092 	.word	0x20000092
 80010c0:	08005e9e 	.word	0x08005e9e
 80010c4:	08005ebe 	.word	0x08005ebe
 80010c8:	08005efb 	.word	0x08005efb
 80010cc:	20000864 	.word	0x20000864
 80010d0:	200006dc 	.word	0x200006dc
 80010d4:	08005ed9 	.word	0x08005ed9
 80010d8:	08005f2c 	.word	0x08005f2c
 80010dc:	08005f47 	.word	0x08005f47
 80010e0:	08005f60 	.word	0x08005f60
 80010e4:	08005f7b 	.word	0x08005f7b
 80010e8:	08005f9b 	.word	0x08005f9b
 80010ec:	08005fb7 	.word	0x08005fb7

080010f0 <SystemClock_Config>:
 80010f0:	b510      	push	{r4, lr}
 80010f2:	b0a0      	sub	sp, #128	; 0x80
 80010f4:	2210      	movs	r2, #16
 80010f6:	2100      	movs	r1, #0
 80010f8:	a80a      	add	r0, sp, #40	; 0x28
 80010fa:	f004 f8c9 	bl	8005290 <memset>
 80010fe:	2214      	movs	r2, #20
 8001100:	2100      	movs	r1, #0
 8001102:	a803      	add	r0, sp, #12
 8001104:	f004 f8c4 	bl	8005290 <memset>
 8001108:	2230      	movs	r2, #48	; 0x30
 800110a:	2100      	movs	r1, #0
 800110c:	a814      	add	r0, sp, #80	; 0x50
 800110e:	f004 f8bf 	bl	8005290 <memset>
 8001112:	4b27      	ldr	r3, [pc, #156]	; (80011b0 <SystemClock_Config+0xc0>)
 8001114:	2100      	movs	r1, #0
 8001116:	9101      	str	r1, [sp, #4]
 8001118:	6c1a      	ldr	r2, [r3, #64]	; 0x40
 800111a:	f042 5280 	orr.w	r2, r2, #268435456	; 0x10000000
 800111e:	641a      	str	r2, [r3, #64]	; 0x40
 8001120:	6c1b      	ldr	r3, [r3, #64]	; 0x40
 8001122:	f003 5380 	and.w	r3, r3, #268435456	; 0x10000000
 8001126:	9301      	str	r3, [sp, #4]
 8001128:	9b01      	ldr	r3, [sp, #4]
 800112a:	4b22      	ldr	r3, [pc, #136]	; (80011b4 <SystemClock_Config+0xc4>)
 800112c:	9102      	str	r1, [sp, #8]
 800112e:	681a      	ldr	r2, [r3, #0]
 8001130:	f442 4240 	orr.w	r2, r2, #49152	; 0xc000
 8001134:	601a      	str	r2, [r3, #0]
 8001136:	681b      	ldr	r3, [r3, #0]
 8001138:	f403 4340 	and.w	r3, r3, #49152	; 0xc000
 800113c:	9302      	str	r3, [sp, #8]
 800113e:	2001      	movs	r0, #1
 8001140:	9b02      	ldr	r3, [sp, #8]
 8001142:	f44f 3380 	mov.w	r3, #65536	; 0x10000
 8001146:	e9cd 0308 	strd	r0, r3, [sp, #32]
 800114a:	2402      	movs	r4, #2
 800114c:	f44f 0380 	mov.w	r3, #4194304	; 0x400000
 8001150:	e9cd 430e 	strd	r4, r3, [sp, #56]	; 0x38
 8001154:	f04f 0c06 	mov.w	ip, #6
 8001158:	23a8      	movs	r3, #168	; 0xa8
 800115a:	e9cd c310 	strd	ip, r3, [sp, #64]	; 0x40
 800115e:	a808      	add	r0, sp, #32
 8001160:	2307      	movs	r3, #7
 8001162:	9412      	str	r4, [sp, #72]	; 0x48
 8001164:	9313      	str	r3, [sp, #76]	; 0x4c
 8001166:	f002 f85b 	bl	8003220 <HAL_RCC_OscConfig>
 800116a:	b108      	cbz	r0, 8001170 <SystemClock_Config+0x80>
 800116c:	b672      	cpsid	i
 800116e:	e7fe      	b.n	800116e <SystemClock_Config+0x7e>
 8001170:	230f      	movs	r3, #15
 8001172:	f44f 51a0 	mov.w	r1, #5120	; 0x1400
 8001176:	e9cd 3403 	strd	r3, r4, [sp, #12]
 800117a:	f44f 5380 	mov.w	r3, #4096	; 0x1000
 800117e:	e9cd 1306 	strd	r1, r3, [sp, #24]
 8001182:	9005      	str	r0, [sp, #20]
 8001184:	2105      	movs	r1, #5
 8001186:	a803      	add	r0, sp, #12
 8001188:	f002 fa24 	bl	80035d4 <HAL_RCC_ClockConfig>
 800118c:	b108      	cbz	r0, 8001192 <SystemClock_Config+0xa2>
 800118e:	b672      	cpsid	i
 8001190:	e7fe      	b.n	8001190 <SystemClock_Config+0xa0>
 8001192:	2308      	movs	r3, #8
 8001194:	9314      	str	r3, [sp, #80]	; 0x50
 8001196:	901d      	str	r0, [sp, #116]	; 0x74
 8001198:	2332      	movs	r3, #50	; 0x32
 800119a:	a814      	add	r0, sp, #80	; 0x50
 800119c:	9318      	str	r3, [sp, #96]	; 0x60
 800119e:	941a      	str	r4, [sp, #104]	; 0x68
 80011a0:	f002 fad4 	bl	800374c <HAL_RCCEx_PeriphCLKConfig>
 80011a4:	b108      	cbz	r0, 80011aa <SystemClock_Config+0xba>
 80011a6:	b672      	cpsid	i
 80011a8:	e7fe      	b.n	80011a8 <SystemClock_Config+0xb8>
 80011aa:	b020      	add	sp, #128	; 0x80
 80011ac:	bd10      	pop	{r4, pc}
 80011ae:	bf00      	nop
 80011b0:	40023800 	.word	0x40023800
 80011b4:	40007000 	.word	0x40007000

080011b8 <main>:
 80011b8:	e92d 4880 	stmdb	sp!, {r7, fp, lr}
 80011bc:	b0a7      	sub	sp, #156	; 0x9c
 80011be:	f000 ff57 	bl	8002070 <HAL_Init>
 80011c2:	f7ff ff95 	bl	80010f0 <SystemClock_Config>
 80011c6:	2214      	movs	r2, #20
 80011c8:	2100      	movs	r1, #0
 80011ca:	a819      	add	r0, sp, #100	; 0x64
 80011cc:	2500      	movs	r5, #0
 80011ce:	f004 f85f 	bl	8005290 <memset>
 80011d2:	4bb9      	ldr	r3, [pc, #740]	; (80014b8 <main+0x300>)
 80011d4:	9501      	str	r5, [sp, #4]
 80011d6:	6b1a      	ldr	r2, [r3, #48]	; 0x30
 80011d8:	48b8      	ldr	r0, [pc, #736]	; (80014bc <main+0x304>)
 80011da:	f042 0210 	orr.w	r2, r2, #16
 80011de:	631a      	str	r2, [r3, #48]	; 0x30
 80011e0:	6b1a      	ldr	r2, [r3, #48]	; 0x30
 80011e2:	f002 0210 	and.w	r2, r2, #16
 80011e6:	9201      	str	r2, [sp, #4]
 80011e8:	9a01      	ldr	r2, [sp, #4]
 80011ea:	9502      	str	r5, [sp, #8]
 80011ec:	6b1a      	ldr	r2, [r3, #48]	; 0x30
 80011ee:	f442 7280 	orr.w	r2, r2, #256	; 0x100
 80011f2:	631a      	str	r2, [r3, #48]	; 0x30
 80011f4:	6b1a      	ldr	r2, [r3, #48]	; 0x30
 80011f6:	f402 7280 	and.w	r2, r2, #256	; 0x100
 80011fa:	9202      	str	r2, [sp, #8]
 80011fc:	9a02      	ldr	r2, [sp, #8]
 80011fe:	9503      	str	r5, [sp, #12]
 8001200:	6b1a      	ldr	r2, [r3, #48]	; 0x30
 8001202:	f042 0204 	orr.w	r2, r2, #4
 8001206:	631a      	str	r2, [r3, #48]	; 0x30
 8001208:	6b1a      	ldr	r2, [r3, #48]	; 0x30
 800120a:	f002 0204 	and.w	r2, r2, #4
 800120e:	9203      	str	r2, [sp, #12]
 8001210:	9a03      	ldr	r2, [sp, #12]
 8001212:	9504      	str	r5, [sp, #16]
 8001214:	6b1a      	ldr	r2, [r3, #48]	; 0x30
 8001216:	f042 0220 	orr.w	r2, r2, #32
 800121a:	631a      	str	r2, [r3, #48]	; 0x30
 800121c:	6b1a      	ldr	r2, [r3, #48]	; 0x30
 800121e:	f002 0220 	and.w	r2, r2, #32
 8001222:	9204      	str	r2, [sp, #16]
 8001224:	9a04      	ldr	r2, [sp, #16]
 8001226:	9505      	str	r5, [sp, #20]
 8001228:	6b1a      	ldr	r2, [r3, #48]	; 0x30
 800122a:	f042 0280 	orr.w	r2, r2, #128	; 0x80
 800122e:	631a      	str	r2, [r3, #48]	; 0x30
 8001230:	6b1a      	ldr	r2, [r3, #48]	; 0x30
 8001232:	f002 0280 	and.w	r2, r2, #128	; 0x80
 8001236:	9205      	str	r2, [sp, #20]
 8001238:	9a05      	ldr	r2, [sp, #20]
 800123a:	9506      	str	r5, [sp, #24]
 800123c:	6b1a      	ldr	r2, [r3, #48]	; 0x30
 800123e:	f042 0201 	orr.w	r2, r2, #1
 8001242:	631a      	str	r2, [r3, #48]	; 0x30
 8001244:	6b1a      	ldr	r2, [r3, #48]	; 0x30
 8001246:	f002 0201 	and.w	r2, r2, #1
 800124a:	9206      	str	r2, [sp, #24]
 800124c:	9a06      	ldr	r2, [sp, #24]
 800124e:	9507      	str	r5, [sp, #28]
 8001250:	6b1a      	ldr	r2, [r3, #48]	; 0x30
 8001252:	f042 0202 	orr.w	r2, r2, #2
 8001256:	631a      	str	r2, [r3, #48]	; 0x30
 8001258:	6b1a      	ldr	r2, [r3, #48]	; 0x30
 800125a:	f002 0202 	and.w	r2, r2, #2
 800125e:	9207      	str	r2, [sp, #28]
 8001260:	9a07      	ldr	r2, [sp, #28]
 8001262:	9508      	str	r5, [sp, #32]
 8001264:	6b1a      	ldr	r2, [r3, #48]	; 0x30
 8001266:	f442 7200 	orr.w	r2, r2, #512	; 0x200
 800126a:	631a      	str	r2, [r3, #48]	; 0x30
 800126c:	6b1a      	ldr	r2, [r3, #48]	; 0x30
 800126e:	f402 7200 	and.w	r2, r2, #512	; 0x200
 8001272:	9208      	str	r2, [sp, #32]
 8001274:	9a08      	ldr	r2, [sp, #32]
 8001276:	9509      	str	r5, [sp, #36]	; 0x24
 8001278:	6b1a      	ldr	r2, [r3, #48]	; 0x30
 800127a:	f042 0240 	orr.w	r2, r2, #64	; 0x40
 800127e:	631a      	str	r2, [r3, #48]	; 0x30
 8001280:	6b1a      	ldr	r2, [r3, #48]	; 0x30
 8001282:	f002 0240 	and.w	r2, r2, #64	; 0x40
 8001286:	9209      	str	r2, [sp, #36]	; 0x24
 8001288:	9a09      	ldr	r2, [sp, #36]	; 0x24
 800128a:	950a      	str	r5, [sp, #40]	; 0x28
 800128c:	6b1a      	ldr	r2, [r3, #48]	; 0x30
 800128e:	f042 0208 	orr.w	r2, r2, #8
 8001292:	631a      	str	r2, [r3, #48]	; 0x30
 8001294:	6b1a      	ldr	r2, [r3, #48]	; 0x30
 8001296:	f002 0208 	and.w	r2, r2, #8
 800129a:	920a      	str	r2, [sp, #40]	; 0x28
 800129c:	9a0a      	ldr	r2, [sp, #40]	; 0x28
 800129e:	950b      	str	r5, [sp, #44]	; 0x2c
 80012a0:	6b1a      	ldr	r2, [r3, #48]	; 0x30
 80012a2:	f442 6280 	orr.w	r2, r2, #1024	; 0x400
 80012a6:	631a      	str	r2, [r3, #48]	; 0x30
 80012a8:	6b1b      	ldr	r3, [r3, #48]	; 0x30
 80012aa:	f403 6380 	and.w	r3, r3, #1024	; 0x400
 80012ae:	462a      	mov	r2, r5
 80012b0:	2174      	movs	r1, #116	; 0x74
 80012b2:	930b      	str	r3, [sp, #44]	; 0x2c
 80012b4:	9b0b      	ldr	r3, [sp, #44]	; 0x2c
 80012b6:	f001 f9d9 	bl	800266c <HAL_GPIO_WritePin>
 80012ba:	4881      	ldr	r0, [pc, #516]	; (80014c0 <main+0x308>)
 80012bc:	462a      	mov	r2, r5
 80012be:	f44f 7100 	mov.w	r1, #512	; 0x200
 80012c2:	f001 f9d3 	bl	800266c <HAL_GPIO_WritePin>
 80012c6:	487e      	ldr	r0, [pc, #504]	; (80014c0 <main+0x308>)
 80012c8:	2201      	movs	r2, #1
 80012ca:	f44f 6180 	mov.w	r1, #1024	; 0x400
 80012ce:	f001 f9cd 	bl	800266c <HAL_GPIO_WritePin>
 80012d2:	487c      	ldr	r0, [pc, #496]	; (80014c4 <main+0x30c>)
 80012d4:	462a      	mov	r2, r5
 80012d6:	f44f 6180 	mov.w	r1, #1024	; 0x400
 80012da:	f001 f9c7 	bl	800266c <HAL_GPIO_WritePin>
 80012de:	487a      	ldr	r0, [pc, #488]	; (80014c8 <main+0x310>)
 80012e0:	462a      	mov	r2, r5
 80012e2:	f248 1120 	movw	r1, #33056	; 0x8120
 80012e6:	f001 f9c1 	bl	800266c <HAL_GPIO_WritePin>
 80012ea:	4877      	ldr	r0, [pc, #476]	; (80014c8 <main+0x310>)
 80012ec:	2201      	movs	r2, #1
 80012ee:	2180      	movs	r1, #128	; 0x80
 80012f0:	f001 f9bc 	bl	800266c <HAL_GPIO_WritePin>
 80012f4:	4875      	ldr	r0, [pc, #468]	; (80014cc <main+0x314>)
 80012f6:	462a      	mov	r2, r5
 80012f8:	210b      	movs	r1, #11
 80012fa:	f001 f9b7 	bl	800266c <HAL_GPIO_WritePin>
 80012fe:	4874      	ldr	r0, [pc, #464]	; (80014d0 <main+0x318>)
 8001300:	2201      	movs	r2, #1
 8001302:	2102      	movs	r1, #2
 8001304:	f001 f9b2 	bl	800266c <HAL_GPIO_WritePin>
 8001308:	4872      	ldr	r0, [pc, #456]	; (80014d4 <main+0x31c>)
 800130a:	462a      	mov	r2, r5
 800130c:	2180      	movs	r1, #128	; 0x80
 800130e:	f001 f9ad 	bl	800266c <HAL_GPIO_WritePin>
 8001312:	4871      	ldr	r0, [pc, #452]	; (80014d8 <main+0x320>)
 8001314:	462a      	mov	r2, r5
 8001316:	2110      	movs	r1, #16
 8001318:	f001 f9a8 	bl	800266c <HAL_GPIO_WritePin>
 800131c:	462a      	mov	r2, r5
 800131e:	486f      	ldr	r0, [pc, #444]	; (80014dc <main+0x324>)
 8001320:	f44f 6180 	mov.w	r1, #1024	; 0x400
 8001324:	f001 f9a2 	bl	800266c <HAL_GPIO_WritePin>
 8001328:	2401      	movs	r4, #1
 800132a:	2374      	movs	r3, #116	; 0x74
 800132c:	4863      	ldr	r0, [pc, #396]	; (80014bc <main+0x304>)
 800132e:	a919      	add	r1, sp, #100	; 0x64
 8001330:	e9cd 3419 	strd	r3, r4, [sp, #100]	; 0x64
 8001334:	e9cd 551b 	strd	r5, r5, [sp, #108]	; 0x6c
 8001338:	f001 f8ac 	bl	8002494 <HAL_GPIO_Init>
 800133c:	2308      	movs	r3, #8
 800133e:	485f      	ldr	r0, [pc, #380]	; (80014bc <main+0x304>)
 8001340:	951b      	str	r5, [sp, #108]	; 0x6c
 8001342:	a919      	add	r1, sp, #100	; 0x64
 8001344:	e9cd 3519 	strd	r3, r5, [sp, #100]	; 0x64
 8001348:	f001 f8a4 	bl	8002494 <HAL_GPIO_Init>
 800134c:	f648 13f0 	movw	r3, #35312	; 0x89f0
 8001350:	485b      	ldr	r0, [pc, #364]	; (80014c0 <main+0x308>)
 8001352:	941b      	str	r4, [sp, #108]	; 0x6c
 8001354:	a919      	add	r1, sp, #100	; 0x64
 8001356:	e9cd 3519 	strd	r3, r5, [sp, #100]	; 0x64
 800135a:	f001 f89b 	bl	8002494 <HAL_GPIO_Init>
 800135e:	f242 0310 	movw	r3, #8208	; 0x2010
 8001362:	485c      	ldr	r0, [pc, #368]	; (80014d4 <main+0x31c>)
 8001364:	941b      	str	r4, [sp, #108]	; 0x6c
 8001366:	a919      	add	r1, sp, #100	; 0x64
 8001368:	e9cd 3519 	strd	r3, r5, [sp, #100]	; 0x64
 800136c:	f001 f892 	bl	8002494 <HAL_GPIO_Init>
 8001370:	f44f 63c0 	mov.w	r3, #1536	; 0x600
 8001374:	4852      	ldr	r0, [pc, #328]	; (80014c0 <main+0x308>)
 8001376:	a919      	add	r1, sp, #100	; 0x64
 8001378:	e9cd 3419 	strd	r3, r4, [sp, #100]	; 0x64
 800137c:	f44f 6880 	mov.w	r8, #1024	; 0x400
 8001380:	e9cd 551b 	strd	r5, r5, [sp, #108]	; 0x6c
 8001384:	f001 f886 	bl	8002494 <HAL_GPIO_Init>
 8001388:	484e      	ldr	r0, [pc, #312]	; (80014c4 <main+0x30c>)
 800138a:	a919      	add	r1, sp, #100	; 0x64
 800138c:	e9cd 8419 	strd	r8, r4, [sp, #100]	; 0x64
 8001390:	e9cd 551b 	strd	r5, r5, [sp, #108]	; 0x6c
 8001394:	f001 f87e 	bl	8002494 <HAL_GPIO_Init>
 8001398:	f640 5384 	movw	r3, #3460	; 0xd84
 800139c:	4850      	ldr	r0, [pc, #320]	; (80014e0 <main+0x328>)
 800139e:	951b      	str	r5, [sp, #108]	; 0x6c
 80013a0:	a919      	add	r1, sp, #100	; 0x64
 80013a2:	e9cd 3519 	strd	r3, r5, [sp, #100]	; 0x64
 80013a6:	f001 f875 	bl	8002494 <HAL_GPIO_Init>
 80013aa:	f24d 2318 	movw	r3, #53784	; 0xd218
 80013ae:	484c      	ldr	r0, [pc, #304]	; (80014e0 <main+0x328>)
 80013b0:	941b      	str	r4, [sp, #108]	; 0x6c
 80013b2:	a919      	add	r1, sp, #100	; 0x64
 80013b4:	e9cd 3519 	strd	r3, r5, [sp, #100]	; 0x64
 80013b8:	f001 f86c 	bl	8002494 <HAL_GPIO_Init>
 80013bc:	f248 13a0 	movw	r3, #33184	; 0x81a0
 80013c0:	4841      	ldr	r0, [pc, #260]	; (80014c8 <main+0x310>)
 80013c2:	a919      	add	r1, sp, #100	; 0x64
 80013c4:	e9cd 3419 	strd	r3, r4, [sp, #100]	; 0x64
 80013c8:	e9cd 551b 	strd	r5, r5, [sp, #108]	; 0x6c
 80013cc:	f04f 0a40 	mov.w	sl, #64	; 0x40
 80013d0:	f001 f860 	bl	8002494 <HAL_GPIO_Init>
 80013d4:	483c      	ldr	r0, [pc, #240]	; (80014c8 <main+0x310>)
 80013d6:	941b      	str	r4, [sp, #108]	; 0x6c
 80013d8:	a919      	add	r1, sp, #100	; 0x64
 80013da:	e9cd a519 	strd	sl, r5, [sp, #100]	; 0x64
 80013de:	f001 f859 	bl	8002494 <HAL_GPIO_Init>
 80013e2:	2360      	movs	r3, #96	; 0x60
 80013e4:	483b      	ldr	r0, [pc, #236]	; (80014d4 <main+0x31c>)
 80013e6:	951b      	str	r5, [sp, #108]	; 0x6c
 80013e8:	a919      	add	r1, sp, #100	; 0x64
 80013ea:	e9cd 3519 	strd	r3, r5, [sp, #100]	; 0x64
 80013ee:	f001 f851 	bl	8002494 <HAL_GPIO_Init>
 80013f2:	230b      	movs	r3, #11
 80013f4:	4835      	ldr	r0, [pc, #212]	; (80014cc <main+0x314>)
 80013f6:	a919      	add	r1, sp, #100	; 0x64
 80013f8:	e9cd 3419 	strd	r3, r4, [sp, #100]	; 0x64
 80013fc:	e9cd 551b 	strd	r5, r5, [sp, #108]	; 0x6c
 8001400:	f001 f848 	bl	8002494 <HAL_GPIO_Init>
 8001404:	4832      	ldr	r0, [pc, #200]	; (80014d0 <main+0x318>)
 8001406:	951b      	str	r5, [sp, #108]	; 0x6c
 8001408:	a919      	add	r1, sp, #100	; 0x64
 800140a:	2702      	movs	r7, #2
 800140c:	e9cd 4519 	strd	r4, r5, [sp, #100]	; 0x64
 8001410:	f001 f840 	bl	8002494 <HAL_GPIO_Init>
 8001414:	482e      	ldr	r0, [pc, #184]	; (80014d0 <main+0x318>)
 8001416:	a919      	add	r1, sp, #100	; 0x64
 8001418:	e9cd 7419 	strd	r7, r4, [sp, #100]	; 0x64
 800141c:	e9cd 551b 	strd	r5, r5, [sp, #108]	; 0x6c
 8001420:	f001 f838 	bl	8002494 <HAL_GPIO_Init>
 8001424:	f241 0310 	movw	r3, #4112	; 0x1010
 8001428:	4828      	ldr	r0, [pc, #160]	; (80014cc <main+0x314>)
 800142a:	951b      	str	r5, [sp, #108]	; 0x6c
 800142c:	a919      	add	r1, sp, #100	; 0x64
 800142e:	e9cd 3519 	strd	r3, r5, [sp, #100]	; 0x64
 8001432:	f001 f82f 	bl	8002494 <HAL_GPIO_Init>
 8001436:	f44f 4360 	mov.w	r3, #57344	; 0xe000
 800143a:	4824      	ldr	r0, [pc, #144]	; (80014cc <main+0x314>)
 800143c:	941b      	str	r4, [sp, #108]	; 0x6c
 800143e:	a919      	add	r1, sp, #100	; 0x64
 8001440:	e9cd 3519 	strd	r3, r5, [sp, #100]	; 0x64
 8001444:	f001 f826 	bl	8002494 <HAL_GPIO_Init>
 8001448:	f642 0388 	movw	r3, #10376	; 0x2888
 800144c:	4822      	ldr	r0, [pc, #136]	; (80014d8 <main+0x320>)
 800144e:	941b      	str	r4, [sp, #108]	; 0x6c
 8001450:	a919      	add	r1, sp, #100	; 0x64
 8001452:	e9cd 3519 	strd	r3, r5, [sp, #100]	; 0x64
 8001456:	f001 f81d 	bl	8002494 <HAL_GPIO_Init>
 800145a:	f44f 5380 	mov.w	r3, #4096	; 0x1000
 800145e:	481e      	ldr	r0, [pc, #120]	; (80014d8 <main+0x320>)
 8001460:	951b      	str	r5, [sp, #108]	; 0x6c
 8001462:	a919      	add	r1, sp, #100	; 0x64
 8001464:	e9cd 3519 	strd	r3, r5, [sp, #100]	; 0x64
 8001468:	f001 f814 	bl	8002494 <HAL_GPIO_Init>
 800146c:	f44f 43e3 	mov.w	r3, #29056	; 0x7180
 8001470:	4817      	ldr	r0, [pc, #92]	; (80014d0 <main+0x318>)
 8001472:	941b      	str	r4, [sp, #108]	; 0x6c
 8001474:	a919      	add	r1, sp, #100	; 0x64
 8001476:	e9cd 3519 	strd	r3, r5, [sp, #100]	; 0x64
 800147a:	f001 f80b 	bl	8002494 <HAL_GPIO_Init>
 800147e:	f241 03cc 	movw	r3, #4300	; 0x10cc
 8001482:	4816      	ldr	r0, [pc, #88]	; (80014dc <main+0x324>)
 8001484:	941b      	str	r4, [sp, #108]	; 0x6c
 8001486:	a919      	add	r1, sp, #100	; 0x64
 8001488:	e9cd 3519 	strd	r3, r5, [sp, #100]	; 0x64
 800148c:	f04f 0980 	mov.w	r9, #128	; 0x80
 8001490:	f001 f800 	bl	8002494 <HAL_GPIO_Init>
 8001494:	480f      	ldr	r0, [pc, #60]	; (80014d4 <main+0x31c>)
 8001496:	a919      	add	r1, sp, #100	; 0x64
 8001498:	e9cd 9419 	strd	r9, r4, [sp, #100]	; 0x64
 800149c:	e9cd 551b 	strd	r5, r5, [sp, #108]	; 0x6c
 80014a0:	f000 fff8 	bl	8002494 <HAL_GPIO_Init>
 80014a4:	4808      	ldr	r0, [pc, #32]	; (80014c8 <main+0x310>)
 80014a6:	951b      	str	r5, [sp, #108]	; 0x6c
 80014a8:	a919      	add	r1, sp, #100	; 0x64
 80014aa:	e9cd 8519 	strd	r8, r5, [sp, #100]	; 0x64
 80014ae:	2610      	movs	r6, #16
 80014b0:	f000 fff0 	bl	8002494 <HAL_GPIO_Init>
 80014b4:	e016      	b.n	80014e4 <main+0x32c>
 80014b6:	bf00      	nop
 80014b8:	40023800 	.word	0x40023800
 80014bc:	40021000 	.word	0x40021000
 80014c0:	40022000 	.word	0x40022000
 80014c4:	40021400 	.word	0x40021400
 80014c8:	40020000 	.word	0x40020000
 80014cc:	40020400 	.word	0x40020400
 80014d0:	40022400 	.word	0x40022400
 80014d4:	40020800 	.word	0x40020800
 80014d8:	40020c00 	.word	0x40020c00
 80014dc:	40021800 	.word	0x40021800
 80014e0:	40021c00 	.word	0x40021c00
 80014e4:	48b5      	ldr	r0, [pc, #724]	; (80017bc <main+0x604>)
 80014e6:	a919      	add	r1, sp, #100	; 0x64
 80014e8:	e9cd 6419 	strd	r6, r4, [sp, #100]	; 0x64
 80014ec:	e9cd 551b 	strd	r5, r5, [sp, #108]	; 0x6c
 80014f0:	f000 ffd0 	bl	8002494 <HAL_GPIO_Init>
 80014f4:	48b2      	ldr	r0, [pc, #712]	; (80017c0 <main+0x608>)
 80014f6:	a919      	add	r1, sp, #100	; 0x64
 80014f8:	e9cd 8419 	strd	r8, r4, [sp, #100]	; 0x64
 80014fc:	e9cd 551b 	strd	r5, r5, [sp, #108]	; 0x6c
 8001500:	f000 ffc8 	bl	8002494 <HAL_GPIO_Init>
 8001504:	f44f 5320 	mov.w	r3, #10240	; 0x2800
 8001508:	48ad      	ldr	r0, [pc, #692]	; (80017c0 <main+0x608>)
 800150a:	951b      	str	r5, [sp, #108]	; 0x6c
 800150c:	a919      	add	r1, sp, #100	; 0x64
 800150e:	e9cd 3519 	strd	r3, r5, [sp, #100]	; 0x64
 8001512:	f000 ffbf 	bl	8002494 <HAL_GPIO_Init>
 8001516:	48ab      	ldr	r0, [pc, #684]	; (80017c4 <main+0x60c>)
 8001518:	f04f 43a0 	mov.w	r3, #1342177280	; 0x50000000
 800151c:	f04f 0b04 	mov.w	fp, #4
 8001520:	e9c0 3b00 	strd	r3, fp, [r0]
 8001524:	e9c0 7503 	strd	r7, r5, [r0, #12]
 8001528:	e9c0 7506 	strd	r7, r5, [r0, #24]
 800152c:	e9c0 5508 	strd	r5, r5, [r0, #32]
 8001530:	e9c0 450b 	strd	r4, r5, [r0, #44]	; 0x2c
 8001534:	f001 fdef 	bl	8003116 <HAL_PCD_Init>
 8001538:	4603      	mov	r3, r0
 800153a:	b108      	cbz	r0, 8001540 <main+0x388>
 800153c:	b672      	cpsid	i
 800153e:	e7fe      	b.n	800153e <main+0x386>
 8001540:	48a1      	ldr	r0, [pc, #644]	; (80017c8 <main+0x610>)
 8001542:	4aa2      	ldr	r2, [pc, #648]	; (80017cc <main+0x614>)
 8001544:	6283      	str	r3, [r0, #40]	; 0x28
 8001546:	a919      	add	r1, sp, #100	; 0x64
 8001548:	e9c0 3b02 	strd	r3, fp, [r0, #8]
 800154c:	e9c0 9306 	strd	r9, r3, [r0, #24]
 8001550:	e9c0 3308 	strd	r3, r3, [r0, #32]
 8001554:	e9c0 2400 	strd	r2, r4, [r0]
 8001558:	e9c0 6a04 	strd	r6, sl, [r0, #16]
 800155c:	e9cd 6619 	strd	r6, r6, [sp, #100]	; 0x64
 8001560:	e9cd 661b 	strd	r6, r6, [sp, #108]	; 0x6c
 8001564:	e9cd 661d 	strd	r6, r6, [sp, #116]	; 0x74
 8001568:	961f      	str	r6, [sp, #124]	; 0x7c
 800156a:	f002 fedb 	bl	8004324 <HAL_SDRAM_Init>
 800156e:	4603      	mov	r3, r0
 8001570:	b108      	cbz	r0, 8001576 <main+0x3be>
 8001572:	b672      	cpsid	i
 8001574:	e7fe      	b.n	8001574 <main+0x3bc>
 8001576:	4896      	ldr	r0, [pc, #600]	; (80017d0 <main+0x618>)
 8001578:	4996      	ldr	r1, [pc, #600]	; (80017d4 <main+0x61c>)
 800157a:	4a97      	ldr	r2, [pc, #604]	; (80017d8 <main+0x620>)
 800157c:	6103      	str	r3, [r0, #16]
 800157e:	f04f 0a0c 	mov.w	sl, #12
 8001582:	e9c0 1200 	strd	r1, r2, [r0]
 8001586:	e9c0 3302 	strd	r3, r3, [r0, #8]
 800158a:	e9c0 a305 	strd	sl, r3, [r0, #20]
 800158e:	61c3      	str	r3, [r0, #28]
 8001590:	f002 ffca 	bl	8004528 <HAL_UART_Init>
 8001594:	4681      	mov	r9, r0
 8001596:	b108      	cbz	r0, 800159c <main+0x3e4>
 8001598:	b672      	cpsid	i
 800159a:	e7fe      	b.n	800159a <main+0x3e2>
 800159c:	4601      	mov	r1, r0
 800159e:	2234      	movs	r2, #52	; 0x34
 80015a0:	a80c      	add	r0, sp, #48	; 0x30
 80015a2:	f003 fe75 	bl	8005290 <memset>
 80015a6:	2234      	movs	r2, #52	; 0x34
 80015a8:	4649      	mov	r1, r9
 80015aa:	a819      	add	r0, sp, #100	; 0x64
 80015ac:	f003 fe70 	bl	8005290 <memset>
 80015b0:	4d8a      	ldr	r5, [pc, #552]	; (80017dc <main+0x624>)
 80015b2:	4b8b      	ldr	r3, [pc, #556]	; (80017e0 <main+0x628>)
 80015b4:	f8c5 a020 	str.w	sl, [r5, #32]
 80015b8:	e9c5 3900 	strd	r3, r9, [r5]
 80015bc:	f04f 0e0a 	mov.w	lr, #10
 80015c0:	232a      	movs	r3, #42	; 0x2a
 80015c2:	e9c5 e306 	strd	lr, r3, [r5, #24]
 80015c6:	f240 2a0a 	movw	sl, #522	; 0x20a
 80015ca:	f44f 738e 	mov.w	r3, #284	; 0x11c
 80015ce:	e9c5 a309 	strd	sl, r3, [r5, #36]	; 0x24
 80015d2:	f240 2b0d 	movw	fp, #525	; 0x20d
 80015d6:	f44f 738f 	mov.w	r3, #286	; 0x11e
 80015da:	f8a5 9034 	strh.w	r9, [r5, #52]	; 0x34
 80015de:	4628      	mov	r0, r5
 80015e0:	e9c5 9902 	strd	r9, r9, [r5, #8]
 80015e4:	e9c5 9704 	strd	r9, r7, [r5, #16]
 80015e8:	e9c5 b30b 	strd	fp, r3, [r5, #44]	; 0x2c
 80015ec:	f885 9036 	strb.w	r9, [r5, #54]	; 0x36
 80015f0:	f001 fcf8 	bl	8002fe4 <HAL_LTDC_Init>
 80015f4:	4602      	mov	r2, r0
 80015f6:	b108      	cbz	r0, 80015fc <main+0x444>
 80015f8:	b672      	cpsid	i
 80015fa:	e7fe      	b.n	80015fa <main+0x442>
 80015fc:	f240 13df 	movw	r3, #479	; 0x1df
 8001600:	e9cd 300d 	strd	r3, r0, [sp, #52]	; 0x34
 8001604:	f04f 0aff 	mov.w	sl, #255	; 0xff
 8001608:	f44f 337f 	mov.w	r3, #261120	; 0x3fc00
 800160c:	f04f 0905 	mov.w	r9, #5
 8001610:	e9cd a011 	strd	sl, r0, [sp, #68]	; 0x44
 8001614:	e9cd 9314 	strd	r9, r3, [sp, #80]	; 0x50
 8001618:	900c      	str	r0, [sp, #48]	; 0x30
 800161a:	f44f 7388 	mov.w	r3, #272	; 0x110
 800161e:	f44f 7cf0 	mov.w	ip, #480	; 0x1e0
 8001622:	f8ad 0060 	strh.w	r0, [sp, #96]	; 0x60
 8001626:	f88d 0062 	strb.w	r0, [sp, #98]	; 0x62
 800162a:	f240 1b0f 	movw	fp, #271	; 0x10f
 800162e:	a90c      	add	r1, sp, #48	; 0x30
 8001630:	4628      	mov	r0, r5
 8001632:	e9cd c316 	strd	ip, r3, [sp, #88]	; 0x58
 8001636:	e9cd b70f 	strd	fp, r7, [sp, #60]	; 0x3c
 800163a:	f8cd 804c 	str.w	r8, [sp, #76]	; 0x4c
 800163e:	f001 fd3d 	bl	80030bc <HAL_LTDC_ConfigLayer>
 8001642:	f240 13df 	movw	r3, #479	; 0x1df
 8001646:	b108      	cbz	r0, 800164c <main+0x494>
 8001648:	b672      	cpsid	i
 800164a:	e7fe      	b.n	800164a <main+0x492>
 800164c:	e9cd 0319 	strd	r0, r3, [sp, #100]	; 0x64
 8001650:	e9cd 7a1d 	strd	r7, sl, [sp, #116]	; 0x74
 8001654:	f44f 73f0 	mov.w	r3, #480	; 0x1e0
 8001658:	f44f 377f 	mov.w	r7, #261120	; 0x3fc00
 800165c:	e9cd 0b1b 	strd	r0, fp, [sp, #108]	; 0x6c
 8001660:	e9cd 081f 	strd	r0, r8, [sp, #124]	; 0x7c
 8001664:	e9cd 7322 	strd	r7, r3, [sp, #136]	; 0x88
 8001668:	f8ad 0094 	strh.w	r0, [sp, #148]	; 0x94
 800166c:	f44f 7388 	mov.w	r3, #272	; 0x110
 8001670:	f88d 0096 	strb.w	r0, [sp, #150]	; 0x96
 8001674:	4622      	mov	r2, r4
 8001676:	a919      	add	r1, sp, #100	; 0x64
 8001678:	4628      	mov	r0, r5
 800167a:	f8cd 9084 	str.w	r9, [sp, #132]	; 0x84
 800167e:	9324      	str	r3, [sp, #144]	; 0x90
 8001680:	f001 fd1c 	bl	80030bc <HAL_LTDC_ConfigLayer>
 8001684:	b108      	cbz	r0, 800168a <main+0x4d2>
 8001686:	b672      	cpsid	i
 8001688:	e7fe      	b.n	8001688 <main+0x4d0>
 800168a:	4d56      	ldr	r5, [pc, #344]	; (80017e4 <main+0x62c>)
 800168c:	4956      	ldr	r1, [pc, #344]	; (80017e8 <main+0x630>)
 800168e:	4b52      	ldr	r3, [pc, #328]	; (80017d8 <main+0x620>)
 8001690:	6228      	str	r0, [r5, #32]
 8001692:	e9c5 1300 	strd	r1, r3, [r5]
 8001696:	f44f 4380 	mov.w	r3, #16384	; 0x4000
 800169a:	e9c5 3002 	strd	r3, r0, [r5, #8]
 800169e:	e9c5 3004 	strd	r3, r0, [r5, #16]
 80016a2:	e9c5 0006 	strd	r0, r0, [r5, #24]
 80016a6:	4628      	mov	r0, r5
 80016a8:	f001 f8e8 	bl	800287c <HAL_I2C_Init>
 80016ac:	4601      	mov	r1, r0
 80016ae:	b108      	cbz	r0, 80016b4 <main+0x4fc>
 80016b0:	b672      	cpsid	i
 80016b2:	e7fe      	b.n	80016b2 <main+0x4fa>
 80016b4:	4628      	mov	r0, r5
 80016b6:	f001 fbd1 	bl	8002e5c <HAL_I2CEx_ConfigAnalogFilter>
 80016ba:	4601      	mov	r1, r0
 80016bc:	b108      	cbz	r0, 80016c2 <main+0x50a>
 80016be:	b672      	cpsid	i
 80016c0:	e7fe      	b.n	80016c0 <main+0x508>
 80016c2:	4628      	mov	r0, r5
 80016c4:	f001 fbe9 	bl	8002e9a <HAL_I2CEx_ConfigDigitalFilter>
 80016c8:	4605      	mov	r5, r0
 80016ca:	b108      	cbz	r0, 80016d0 <main+0x518>
 80016cc:	b672      	cpsid	i
 80016ce:	e7fe      	b.n	80016ce <main+0x516>
 80016d0:	4632      	mov	r2, r6
 80016d2:	4601      	mov	r1, r0
 80016d4:	a819      	add	r0, sp, #100	; 0x64
 80016d6:	f003 fddb 	bl	8005290 <memset>
 80016da:	4844      	ldr	r0, [pc, #272]	; (80017ec <main+0x634>)
 80016dc:	4a44      	ldr	r2, [pc, #272]	; (80017f0 <main+0x638>)
 80016de:	6085      	str	r5, [r0, #8]
 80016e0:	f44f 3380 	mov.w	r3, #65536	; 0x10000
 80016e4:	e9c0 2300 	strd	r2, r3, [r0]
 80016e8:	4b42      	ldr	r3, [pc, #264]	; (80017f4 <main+0x63c>)
 80016ea:	6105      	str	r5, [r0, #16]
 80016ec:	7605      	strb	r5, [r0, #24]
 80016ee:	f880 5020 	strb.w	r5, [r0, #32]
 80016f2:	62c5      	str	r5, [r0, #44]	; 0x2c
 80016f4:	6283      	str	r3, [r0, #40]	; 0x28
 80016f6:	60c5      	str	r5, [r0, #12]
 80016f8:	61c4      	str	r4, [r0, #28]
 80016fa:	f880 5030 	strb.w	r5, [r0, #48]	; 0x30
 80016fe:	6144      	str	r4, [r0, #20]
 8001700:	f000 fcf6 	bl	80020f0 <HAL_ADC_Init>
 8001704:	b108      	cbz	r0, 800170a <main+0x552>
 8001706:	b672      	cpsid	i
 8001708:	e7fe      	b.n	8001708 <main+0x550>
 800170a:	2504      	movs	r5, #4
 800170c:	2401      	movs	r4, #1
 800170e:	2300      	movs	r3, #0
 8001710:	4836      	ldr	r0, [pc, #216]	; (80017ec <main+0x634>)
 8001712:	931b      	str	r3, [sp, #108]	; 0x6c
 8001714:	a919      	add	r1, sp, #100	; 0x64
 8001716:	e9cd 5419 	strd	r5, r4, [sp, #100]	; 0x64
 800171a:	f000 fd8f 	bl	800223c <HAL_ADC_ConfigChannel>
 800171e:	b108      	cbz	r0, 8001724 <main+0x56c>
 8001720:	b672      	cpsid	i
 8001722:	e7fe      	b.n	8001722 <main+0x56a>
 8001724:	4e34      	ldr	r6, [pc, #208]	; (80017f8 <main+0x640>)
 8001726:	4b35      	ldr	r3, [pc, #212]	; (80017fc <main+0x644>)
 8001728:	6033      	str	r3, [r6, #0]
 800172a:	e9cd 0019 	strd	r0, r0, [sp, #100]	; 0x64
 800172e:	4630      	mov	r0, r6
 8001730:	f000 fe7a 	bl	8002428 <HAL_DAC_Init>
 8001734:	4602      	mov	r2, r0
 8001736:	b108      	cbz	r0, 800173c <main+0x584>
 8001738:	b672      	cpsid	i
 800173a:	e7fe      	b.n	800173a <main+0x582>
 800173c:	e9cd 0019 	strd	r0, r0, [sp, #100]	; 0x64
 8001740:	a919      	add	r1, sp, #100	; 0x64
 8001742:	4630      	mov	r0, r6
 8001744:	f000 fe83 	bl	800244e <HAL_DAC_ConfigChannel>
 8001748:	b108      	cbz	r0, 800174e <main+0x596>
 800174a:	b672      	cpsid	i
 800174c:	e7fe      	b.n	800174c <main+0x594>
 800174e:	4b2c      	ldr	r3, [pc, #176]	; (8001800 <main+0x648>)
 8001750:	4a2c      	ldr	r2, [pc, #176]	; (8001804 <main+0x64c>)
 8001752:	6198      	str	r0, [r3, #24]
 8001754:	e9c3 2000 	strd	r2, r0, [r3]
 8001758:	e9c3 0002 	strd	r0, r0, [r3, #8]
 800175c:	e9c3 0004 	strd	r0, r0, [r3, #16]
 8001760:	4b29      	ldr	r3, [pc, #164]	; (8001808 <main+0x650>)
 8001762:	f5a2 4274 	sub.w	r2, r2, #62464	; 0xf400
 8001766:	601a      	str	r2, [r3, #0]
 8001768:	f44f 7282 	mov.w	r2, #260	; 0x104
 800176c:	e9c3 2001 	strd	r2, r0, [r3, #4]
 8001770:	f44f 2280 	mov.w	r2, #262144	; 0x40000
 8001774:	e9c3 2006 	strd	r2, r0, [r3, #24]
 8001778:	e9c3 0003 	strd	r0, r0, [r3, #12]
 800177c:	e9c3 0008 	strd	r0, r0, [r3, #32]
 8001780:	6158      	str	r0, [r3, #20]
 8001782:	6298      	str	r0, [r3, #40]	; 0x28
 8001784:	220a      	movs	r2, #10
 8001786:	4618      	mov	r0, r3
 8001788:	62da      	str	r2, [r3, #44]	; 0x2c
 800178a:	f002 fdeb 	bl	8004364 <HAL_SPI_Init>
 800178e:	4603      	mov	r3, r0
 8001790:	b108      	cbz	r0, 8001796 <main+0x5de>
 8001792:	b672      	cpsid	i
 8001794:	e7fe      	b.n	8001794 <main+0x5dc>
 8001796:	481d      	ldr	r0, [pc, #116]	; (800180c <main+0x654>)
 8001798:	4a1d      	ldr	r2, [pc, #116]	; (8001810 <main+0x658>)
 800179a:	6103      	str	r3, [r0, #16]
 800179c:	f44f 37e1 	mov.w	r7, #115200	; 0x1c200
 80017a0:	260c      	movs	r6, #12
 80017a2:	e9c0 3302 	strd	r3, r3, [r0, #8]
 80017a6:	e9c0 6305 	strd	r6, r3, [r0, #20]
 80017aa:	61c3      	str	r3, [r0, #28]
 80017ac:	e9c0 2700 	strd	r2, r7, [r0]
 80017b0:	f002 feba 	bl	8004528 <HAL_UART_Init>
 80017b4:	4603      	mov	r3, r0
 80017b6:	b368      	cbz	r0, 8001814 <main+0x65c>
 80017b8:	b672      	cpsid	i
 80017ba:	e7fe      	b.n	80017ba <main+0x602>
 80017bc:	40020c00 	.word	0x40020c00
 80017c0:	40021800 	.word	0x40021800
 80017c4:	200001a0 	.word	0x200001a0
 80017c8:	20000830 	.word	0x20000830
 80017cc:	a0000140 	.word	0xa0000140
 80017d0:	20000108 	.word	0x20000108
 80017d4:	40004800 	.word	0x40004800
 80017d8:	00061a80 	.word	0x00061a80
 80017dc:	200005a8 	.word	0x200005a8
 80017e0:	40016800 	.word	0x40016800
 80017e4:	2000014c 	.word	0x2000014c
 80017e8:	40005400 	.word	0x40005400
 80017ec:	20000650 	.word	0x20000650
 80017f0:	40012200 	.word	0x40012200
 80017f4:	0f000001 	.word	0x0f000001
 80017f8:	20000710 	.word	0x20000710
 80017fc:	40007400 	.word	0x40007400
 8001800:	20000724 	.word	0x20000724
 8001804:	40012c00 	.word	0x40012c00
 8001808:	200000b0 	.word	0x200000b0
 800180c:	20000698 	.word	0x20000698
 8001810:	40011000 	.word	0x40011000
 8001814:	483c      	ldr	r0, [pc, #240]	; (8001908 <main+0x750>)
 8001816:	4a3d      	ldr	r2, [pc, #244]	; (800190c <main+0x754>)
 8001818:	e9c0 3302 	strd	r3, r3, [r0, #8]
 800181c:	e9c0 3604 	strd	r3, r6, [r0, #16]
 8001820:	e9c0 3306 	strd	r3, r3, [r0, #24]
 8001824:	e9c0 2700 	strd	r2, r7, [r0]
 8001828:	f002 fe7e 	bl	8004528 <HAL_UART_Init>
 800182c:	4603      	mov	r3, r0
 800182e:	b108      	cbz	r0, 8001834 <main+0x67c>
 8001830:	b672      	cpsid	i
 8001832:	e7fe      	b.n	8001832 <main+0x67a>
 8001834:	4836      	ldr	r0, [pc, #216]	; (8001910 <main+0x758>)
 8001836:	4a37      	ldr	r2, [pc, #220]	; (8001914 <main+0x75c>)
 8001838:	e9c0 3604 	strd	r3, r6, [r0, #16]
 800183c:	e9c0 2700 	strd	r2, r7, [r0]
 8001840:	e9c0 3302 	strd	r3, r3, [r0, #8]
 8001844:	e9c0 3306 	strd	r3, r3, [r0, #24]
 8001848:	f002 fe6e 	bl	8004528 <HAL_UART_Init>
 800184c:	4606      	mov	r6, r0
 800184e:	b108      	cbz	r0, 8001854 <main+0x69c>
 8001850:	b672      	cpsid	i
 8001852:	e7fe      	b.n	8001852 <main+0x69a>
 8001854:	f003 fbf6 	bl	8005044 <MX_FATFS_Init>
 8001858:	482f      	ldr	r0, [pc, #188]	; (8001918 <main+0x760>)
 800185a:	4622      	mov	r2, r4
 800185c:	2102      	movs	r1, #2
 800185e:	f000 ff05 	bl	800266c <HAL_GPIO_WritePin>
 8001862:	482e      	ldr	r0, [pc, #184]	; (800191c <main+0x764>)
 8001864:	4632      	mov	r2, r6
 8001866:	4629      	mov	r1, r5
 8001868:	f000 ff00 	bl	800266c <HAL_GPIO_WritePin>
 800186c:	482b      	ldr	r0, [pc, #172]	; (800191c <main+0x764>)
 800186e:	4622      	mov	r2, r4
 8001870:	2110      	movs	r1, #16
 8001872:	f000 fefb 	bl	800266c <HAL_GPIO_WritePin>
 8001876:	4829      	ldr	r0, [pc, #164]	; (800191c <main+0x764>)
 8001878:	4632      	mov	r2, r6
 800187a:	2120      	movs	r1, #32
 800187c:	f000 fef6 	bl	800266c <HAL_GPIO_WritePin>
 8001880:	f44f 707a 	mov.w	r0, #1000	; 0x3e8
 8001884:	f000 fc20 	bl	80020c8 <HAL_Delay>
 8001888:	f7ff f954 	bl	8000b34 <touchPanelInit>
 800188c:	b978      	cbnz	r0, 80018ae <main+0x6f6>
 800188e:	f000 fc15 	bl	80020bc <HAL_GetTick>
 8001892:	ee07 0a90 	vmov	s15, r0
 8001896:	eef8 7a67 	vcvt.f32.u32	s15, s15
 800189a:	ee17 0a90 	vmov	r0, s15
 800189e:	f7fe fe73 	bl	8000588 <__aeabi_f2d>
 80018a2:	4602      	mov	r2, r0
 80018a4:	460b      	mov	r3, r1
 80018a6:	481e      	ldr	r0, [pc, #120]	; (8001920 <main+0x768>)
 80018a8:	f7ff f842 	bl	8000930 <serialPrintf>
 80018ac:	beff      	bkpt	0x00ff
 80018ae:	4e1d      	ldr	r6, [pc, #116]	; (8001924 <main+0x76c>)
 80018b0:	4d19      	ldr	r5, [pc, #100]	; (8001918 <main+0x760>)
 80018b2:	4c1a      	ldr	r4, [pc, #104]	; (800191c <main+0x764>)
 80018b4:	2104      	movs	r1, #4
 80018b6:	4630      	mov	r0, r6
 80018b8:	f000 fed2 	bl	8002660 <HAL_GPIO_ReadPin>
 80018bc:	2801      	cmp	r0, #1
 80018be:	d101      	bne.n	80018c4 <main+0x70c>
 80018c0:	f7ff fac6 	bl	8000e50 <touchPanelRead>
 80018c4:	4814      	ldr	r0, [pc, #80]	; (8001918 <main+0x760>)
 80018c6:	2101      	movs	r1, #1
 80018c8:	f000 feca 	bl	8002660 <HAL_GPIO_ReadPin>
 80018cc:	b990      	cbnz	r0, 80018f4 <main+0x73c>
 80018ce:	2201      	movs	r2, #1
 80018d0:	2120      	movs	r1, #32
 80018d2:	4620      	mov	r0, r4
 80018d4:	f000 feca 	bl	800266c <HAL_GPIO_WritePin>
 80018d8:	f44f 707a 	mov.w	r0, #1000	; 0x3e8
 80018dc:	f000 fbf4 	bl	80020c8 <HAL_Delay>
 80018e0:	2101      	movs	r1, #1
 80018e2:	4628      	mov	r0, r5
 80018e4:	f000 febc 	bl	8002660 <HAL_GPIO_ReadPin>
 80018e8:	4602      	mov	r2, r0
 80018ea:	b918      	cbnz	r0, 80018f4 <main+0x73c>
 80018ec:	2102      	movs	r1, #2
 80018ee:	4628      	mov	r0, r5
 80018f0:	f000 febc 	bl	800266c <HAL_GPIO_WritePin>
 80018f4:	4620      	mov	r0, r4
 80018f6:	2200      	movs	r2, #0
 80018f8:	2120      	movs	r1, #32
 80018fa:	f000 feb7 	bl	800266c <HAL_GPIO_WritePin>
 80018fe:	2064      	movs	r0, #100	; 0x64
 8001900:	f000 fbe2 	bl	80020c8 <HAL_Delay>
 8001904:	e7d6      	b.n	80018b4 <main+0x6fc>
 8001906:	bf00      	nop
 8001908:	200007ec 	.word	0x200007ec
 800190c:	40004400 	.word	0x40004400
 8001910:	200007a8 	.word	0x200007a8
 8001914:	40011400 	.word	0x40011400
 8001918:	40022400 	.word	0x40022400
 800191c:	40021000 	.word	0x40021000
 8001920:	08005fd5 	.word	0x08005fd5
 8001924:	40021c00 	.word	0x40021c00

08001928 <HAL_MspInit>:
 8001928:	b082      	sub	sp, #8
 800192a:	4b0c      	ldr	r3, [pc, #48]	; (800195c <HAL_MspInit+0x34>)
 800192c:	2100      	movs	r1, #0
 800192e:	9100      	str	r1, [sp, #0]
 8001930:	6c5a      	ldr	r2, [r3, #68]	; 0x44
 8001932:	f442 4280 	orr.w	r2, r2, #16384	; 0x4000
 8001936:	645a      	str	r2, [r3, #68]	; 0x44
 8001938:	6c5a      	ldr	r2, [r3, #68]	; 0x44
 800193a:	f402 4280 	and.w	r2, r2, #16384	; 0x4000
 800193e:	9200      	str	r2, [sp, #0]
 8001940:	9a00      	ldr	r2, [sp, #0]
 8001942:	9101      	str	r1, [sp, #4]
 8001944:	6c1a      	ldr	r2, [r3, #64]	; 0x40
 8001946:	f042 5280 	orr.w	r2, r2, #268435456	; 0x10000000
 800194a:	641a      	str	r2, [r3, #64]	; 0x40
 800194c:	6c1b      	ldr	r3, [r3, #64]	; 0x40
 800194e:	f003 5380 	and.w	r3, r3, #268435456	; 0x10000000
 8001952:	9301      	str	r3, [sp, #4]
 8001954:	9b01      	ldr	r3, [sp, #4]
 8001956:	b002      	add	sp, #8
 8001958:	4770      	bx	lr
 800195a:	bf00      	nop
 800195c:	40023800 	.word	0x40023800

08001960 <HAL_ADC_MspInit>:
 8001960:	b570      	push	{r4, r5, r6, lr}
 8001962:	2214      	movs	r2, #20
 8001964:	b08a      	sub	sp, #40	; 0x28
 8001966:	4604      	mov	r4, r0
 8001968:	2100      	movs	r1, #0
 800196a:	eb0d 0002 	add.w	r0, sp, r2
 800196e:	f003 fc8f 	bl	8005290 <memset>
 8001972:	6822      	ldr	r2, [r4, #0]
 8001974:	4b24      	ldr	r3, [pc, #144]	; (8001a08 <HAL_ADC_MspInit+0xa8>)
 8001976:	429a      	cmp	r2, r3
 8001978:	d143      	bne.n	8001a02 <HAL_ADC_MspInit+0xa2>
 800197a:	f503 338b 	add.w	r3, r3, #71168	; 0x11600
 800197e:	2400      	movs	r4, #0
 8001980:	9401      	str	r4, [sp, #4]
 8001982:	6c5a      	ldr	r2, [r3, #68]	; 0x44
 8001984:	4821      	ldr	r0, [pc, #132]	; (8001a0c <HAL_ADC_MspInit+0xac>)
 8001986:	f442 6280 	orr.w	r2, r2, #1024	; 0x400
 800198a:	645a      	str	r2, [r3, #68]	; 0x44
 800198c:	6c5a      	ldr	r2, [r3, #68]	; 0x44
 800198e:	f402 6280 	and.w	r2, r2, #1024	; 0x400
 8001992:	9201      	str	r2, [sp, #4]
 8001994:	9a01      	ldr	r2, [sp, #4]
 8001996:	9402      	str	r4, [sp, #8]
 8001998:	6b1a      	ldr	r2, [r3, #48]	; 0x30
 800199a:	f042 0220 	orr.w	r2, r2, #32
 800199e:	631a      	str	r2, [r3, #48]	; 0x30
 80019a0:	6b1a      	ldr	r2, [r3, #48]	; 0x30
 80019a2:	f002 0220 	and.w	r2, r2, #32
 80019a6:	9202      	str	r2, [sp, #8]
 80019a8:	9a02      	ldr	r2, [sp, #8]
 80019aa:	9403      	str	r4, [sp, #12]
 80019ac:	6b1a      	ldr	r2, [r3, #48]	; 0x30
 80019ae:	f042 0204 	orr.w	r2, r2, #4
 80019b2:	631a      	str	r2, [r3, #48]	; 0x30
 80019b4:	6b1a      	ldr	r2, [r3, #48]	; 0x30
 80019b6:	f002 0204 	and.w	r2, r2, #4
 80019ba:	9203      	str	r2, [sp, #12]
 80019bc:	9a03      	ldr	r2, [sp, #12]
 80019be:	9404      	str	r4, [sp, #16]
 80019c0:	6b1a      	ldr	r2, [r3, #48]	; 0x30
 80019c2:	f042 0201 	orr.w	r2, r2, #1
 80019c6:	631a      	str	r2, [r3, #48]	; 0x30
 80019c8:	6b1b      	ldr	r3, [r3, #48]	; 0x30
 80019ca:	9407      	str	r4, [sp, #28]
 80019cc:	f003 0301 	and.w	r3, r3, #1
 80019d0:	9304      	str	r3, [sp, #16]
 80019d2:	2503      	movs	r5, #3
 80019d4:	9b04      	ldr	r3, [sp, #16]
 80019d6:	a905      	add	r1, sp, #20
 80019d8:	f44f 7370 	mov.w	r3, #960	; 0x3c0
 80019dc:	e9cd 3505 	strd	r3, r5, [sp, #20]
 80019e0:	260f      	movs	r6, #15
 80019e2:	f000 fd57 	bl	8002494 <HAL_GPIO_Init>
 80019e6:	480a      	ldr	r0, [pc, #40]	; (8001a10 <HAL_ADC_MspInit+0xb0>)
 80019e8:	9407      	str	r4, [sp, #28]
 80019ea:	a905      	add	r1, sp, #20
 80019ec:	e9cd 6505 	strd	r6, r5, [sp, #20]
 80019f0:	f000 fd50 	bl	8002494 <HAL_GPIO_Init>
 80019f4:	4807      	ldr	r0, [pc, #28]	; (8001a14 <HAL_ADC_MspInit+0xb4>)
 80019f6:	9407      	str	r4, [sp, #28]
 80019f8:	a905      	add	r1, sp, #20
 80019fa:	e9cd 6505 	strd	r6, r5, [sp, #20]
 80019fe:	f000 fd49 	bl	8002494 <HAL_GPIO_Init>
 8001a02:	b00a      	add	sp, #40	; 0x28
 8001a04:	bd70      	pop	{r4, r5, r6, pc}
 8001a06:	bf00      	nop
 8001a08:	40012200 	.word	0x40012200
 8001a0c:	40021400 	.word	0x40021400
 8001a10:	40020800 	.word	0x40020800
 8001a14:	40020000 	.word	0x40020000

08001a18 <HAL_DAC_MspInit>:
 8001a18:	b510      	push	{r4, lr}
 8001a1a:	4604      	mov	r4, r0
 8001a1c:	b088      	sub	sp, #32
 8001a1e:	2214      	movs	r2, #20
 8001a20:	2100      	movs	r1, #0
 8001a22:	a803      	add	r0, sp, #12
 8001a24:	f003 fc34 	bl	8005290 <memset>
 8001a28:	6822      	ldr	r2, [r4, #0]
 8001a2a:	4b12      	ldr	r3, [pc, #72]	; (8001a74 <HAL_DAC_MspInit+0x5c>)
 8001a2c:	429a      	cmp	r2, r3
 8001a2e:	d11f      	bne.n	8001a70 <HAL_DAC_MspInit+0x58>
 8001a30:	f503 33e2 	add.w	r3, r3, #115712	; 0x1c400
 8001a34:	2200      	movs	r2, #0
 8001a36:	9201      	str	r2, [sp, #4]
 8001a38:	6c19      	ldr	r1, [r3, #64]	; 0x40
 8001a3a:	480f      	ldr	r0, [pc, #60]	; (8001a78 <HAL_DAC_MspInit+0x60>)
 8001a3c:	f041 5100 	orr.w	r1, r1, #536870912	; 0x20000000
 8001a40:	6419      	str	r1, [r3, #64]	; 0x40
 8001a42:	6c19      	ldr	r1, [r3, #64]	; 0x40
 8001a44:	f001 5100 	and.w	r1, r1, #536870912	; 0x20000000
 8001a48:	9101      	str	r1, [sp, #4]
 8001a4a:	9901      	ldr	r1, [sp, #4]
 8001a4c:	9202      	str	r2, [sp, #8]
 8001a4e:	6b19      	ldr	r1, [r3, #48]	; 0x30
 8001a50:	f041 0101 	orr.w	r1, r1, #1
 8001a54:	6319      	str	r1, [r3, #48]	; 0x30
 8001a56:	6b1b      	ldr	r3, [r3, #48]	; 0x30
 8001a58:	9205      	str	r2, [sp, #20]
 8001a5a:	f003 0301 	and.w	r3, r3, #1
 8001a5e:	9302      	str	r3, [sp, #8]
 8001a60:	2110      	movs	r1, #16
 8001a62:	9b02      	ldr	r3, [sp, #8]
 8001a64:	2303      	movs	r3, #3
 8001a66:	e9cd 1303 	strd	r1, r3, [sp, #12]
 8001a6a:	a903      	add	r1, sp, #12
 8001a6c:	f000 fd12 	bl	8002494 <HAL_GPIO_Init>
 8001a70:	b008      	add	sp, #32
 8001a72:	bd10      	pop	{r4, pc}
 8001a74:	40007400 	.word	0x40007400
 8001a78:	40020000 	.word	0x40020000

08001a7c <HAL_I2C_MspInit>:
 8001a7c:	b530      	push	{r4, r5, lr}
 8001a7e:	4604      	mov	r4, r0
 8001a80:	b089      	sub	sp, #36	; 0x24
 8001a82:	2214      	movs	r2, #20
 8001a84:	2100      	movs	r1, #0
 8001a86:	a803      	add	r0, sp, #12
 8001a88:	f003 fc02 	bl	8005290 <memset>
 8001a8c:	6822      	ldr	r2, [r4, #0]
 8001a8e:	4b14      	ldr	r3, [pc, #80]	; (8001ae0 <HAL_I2C_MspInit+0x64>)
 8001a90:	429a      	cmp	r2, r3
 8001a92:	d123      	bne.n	8001adc <HAL_I2C_MspInit+0x60>
 8001a94:	4c13      	ldr	r4, [pc, #76]	; (8001ae4 <HAL_I2C_MspInit+0x68>)
 8001a96:	4814      	ldr	r0, [pc, #80]	; (8001ae8 <HAL_I2C_MspInit+0x6c>)
 8001a98:	2500      	movs	r5, #0
 8001a9a:	9501      	str	r5, [sp, #4]
 8001a9c:	6b23      	ldr	r3, [r4, #48]	; 0x30
 8001a9e:	f043 0302 	orr.w	r3, r3, #2
 8001aa2:	6323      	str	r3, [r4, #48]	; 0x30
 8001aa4:	6b23      	ldr	r3, [r4, #48]	; 0x30
 8001aa6:	9505      	str	r5, [sp, #20]
 8001aa8:	f003 0302 	and.w	r3, r3, #2
 8001aac:	9301      	str	r3, [sp, #4]
 8001aae:	9b01      	ldr	r3, [sp, #4]
 8001ab0:	f44f 7240 	mov.w	r2, #768	; 0x300
 8001ab4:	2312      	movs	r3, #18
 8001ab6:	e9cd 2303 	strd	r2, r3, [sp, #12]
 8001aba:	2103      	movs	r1, #3
 8001abc:	2304      	movs	r3, #4
 8001abe:	e9cd 1306 	strd	r1, r3, [sp, #24]
 8001ac2:	a903      	add	r1, sp, #12
 8001ac4:	f000 fce6 	bl	8002494 <HAL_GPIO_Init>
 8001ac8:	9502      	str	r5, [sp, #8]
 8001aca:	6c23      	ldr	r3, [r4, #64]	; 0x40
 8001acc:	f443 1300 	orr.w	r3, r3, #2097152	; 0x200000
 8001ad0:	6423      	str	r3, [r4, #64]	; 0x40
 8001ad2:	6c23      	ldr	r3, [r4, #64]	; 0x40
 8001ad4:	f403 1300 	and.w	r3, r3, #2097152	; 0x200000
 8001ad8:	9302      	str	r3, [sp, #8]
 8001ada:	9b02      	ldr	r3, [sp, #8]
 8001adc:	b009      	add	sp, #36	; 0x24
 8001ade:	bd30      	pop	{r4, r5, pc}
 8001ae0:	40005400 	.word	0x40005400
 8001ae4:	40023800 	.word	0x40023800
 8001ae8:	40020400 	.word	0x40020400

08001aec <HAL_LTDC_MspInit>:
 8001aec:	b570      	push	{r4, r5, r6, lr}
 8001aee:	2214      	movs	r2, #20
 8001af0:	b08a      	sub	sp, #40	; 0x28
 8001af2:	4604      	mov	r4, r0
 8001af4:	2100      	movs	r1, #0
 8001af6:	eb0d 0002 	add.w	r0, sp, r2
 8001afa:	f003 fbc9 	bl	8005290 <memset>
 8001afe:	6822      	ldr	r2, [r4, #0]
 8001b00:	4b28      	ldr	r3, [pc, #160]	; (8001ba4 <HAL_LTDC_MspInit+0xb8>)
 8001b02:	429a      	cmp	r2, r3
 8001b04:	d14c      	bne.n	8001ba0 <HAL_LTDC_MspInit+0xb4>
 8001b06:	f503 4350 	add.w	r3, r3, #53248	; 0xd000
 8001b0a:	2400      	movs	r4, #0
 8001b0c:	9401      	str	r4, [sp, #4]
 8001b0e:	6c5a      	ldr	r2, [r3, #68]	; 0x44
 8001b10:	4825      	ldr	r0, [pc, #148]	; (8001ba8 <HAL_LTDC_MspInit+0xbc>)
 8001b12:	f042 6280 	orr.w	r2, r2, #67108864	; 0x4000000
 8001b16:	645a      	str	r2, [r3, #68]	; 0x44
 8001b18:	6c5a      	ldr	r2, [r3, #68]	; 0x44
 8001b1a:	f002 6280 	and.w	r2, r2, #67108864	; 0x4000000
 8001b1e:	9201      	str	r2, [sp, #4]
 8001b20:	9a01      	ldr	r2, [sp, #4]
 8001b22:	9402      	str	r4, [sp, #8]
 8001b24:	6b1a      	ldr	r2, [r3, #48]	; 0x30
 8001b26:	f442 7280 	orr.w	r2, r2, #256	; 0x100
 8001b2a:	631a      	str	r2, [r3, #48]	; 0x30
 8001b2c:	6b1a      	ldr	r2, [r3, #48]	; 0x30
 8001b2e:	f402 7280 	and.w	r2, r2, #256	; 0x100
 8001b32:	9202      	str	r2, [sp, #8]
 8001b34:	9a02      	ldr	r2, [sp, #8]
 8001b36:	9403      	str	r4, [sp, #12]
 8001b38:	6b1a      	ldr	r2, [r3, #48]	; 0x30
 8001b3a:	f442 7200 	orr.w	r2, r2, #512	; 0x200
 8001b3e:	631a      	str	r2, [r3, #48]	; 0x30
 8001b40:	6b1a      	ldr	r2, [r3, #48]	; 0x30
 8001b42:	f402 7200 	and.w	r2, r2, #512	; 0x200
 8001b46:	9203      	str	r2, [sp, #12]
 8001b48:	9a03      	ldr	r2, [sp, #12]
 8001b4a:	9404      	str	r4, [sp, #16]
 8001b4c:	6b1a      	ldr	r2, [r3, #48]	; 0x30
 8001b4e:	f442 6280 	orr.w	r2, r2, #1024	; 0x400
 8001b52:	631a      	str	r2, [r3, #48]	; 0x30
 8001b54:	6b1b      	ldr	r3, [r3, #48]	; 0x30
 8001b56:	f403 6380 	and.w	r3, r3, #1024	; 0x400
 8001b5a:	9304      	str	r3, [sp, #16]
 8001b5c:	2602      	movs	r6, #2
 8001b5e:	250e      	movs	r5, #14
 8001b60:	9b04      	ldr	r3, [sp, #16]
 8001b62:	9509      	str	r5, [sp, #36]	; 0x24
 8001b64:	f44f 43e0 	mov.w	r3, #28672	; 0x7000
 8001b68:	a905      	add	r1, sp, #20
 8001b6a:	e9cd 3605 	strd	r3, r6, [sp, #20]
 8001b6e:	e9cd 4407 	strd	r4, r4, [sp, #28]
 8001b72:	f000 fc8f 	bl	8002494 <HAL_GPIO_Init>
 8001b76:	f648 637c 	movw	r3, #36476	; 0x8e7c
 8001b7a:	480c      	ldr	r0, [pc, #48]	; (8001bac <HAL_LTDC_MspInit+0xc0>)
 8001b7c:	9509      	str	r5, [sp, #36]	; 0x24
 8001b7e:	a905      	add	r1, sp, #20
 8001b80:	e9cd 3605 	strd	r3, r6, [sp, #20]
 8001b84:	e9cd 4407 	strd	r4, r4, [sp, #28]
 8001b88:	f000 fc84 	bl	8002494 <HAL_GPIO_Init>
 8001b8c:	23ff      	movs	r3, #255	; 0xff
 8001b8e:	4808      	ldr	r0, [pc, #32]	; (8001bb0 <HAL_LTDC_MspInit+0xc4>)
 8001b90:	9509      	str	r5, [sp, #36]	; 0x24
 8001b92:	a905      	add	r1, sp, #20
 8001b94:	e9cd 3605 	strd	r3, r6, [sp, #20]
 8001b98:	e9cd 4407 	strd	r4, r4, [sp, #28]
 8001b9c:	f000 fc7a 	bl	8002494 <HAL_GPIO_Init>
 8001ba0:	b00a      	add	sp, #40	; 0x28
 8001ba2:	bd70      	pop	{r4, r5, r6, pc}
 8001ba4:	40016800 	.word	0x40016800
 8001ba8:	40022000 	.word	0x40022000
 8001bac:	40022400 	.word	0x40022400
 8001bb0:	40022800 	.word	0x40022800

08001bb4 <HAL_SD_MspInit>:
 8001bb4:	b5f0      	push	{r4, r5, r6, r7, lr}
 8001bb6:	4604      	mov	r4, r0
 8001bb8:	b089      	sub	sp, #36	; 0x24
 8001bba:	2214      	movs	r2, #20
 8001bbc:	2100      	movs	r1, #0
 8001bbe:	a803      	add	r0, sp, #12
 8001bc0:	f003 fb66 	bl	8005290 <memset>
 8001bc4:	6822      	ldr	r2, [r4, #0]
 8001bc6:	4b20      	ldr	r3, [pc, #128]	; (8001c48 <HAL_SD_MspInit+0x94>)
 8001bc8:	429a      	cmp	r2, r3
 8001bca:	d13a      	bne.n	8001c42 <HAL_SD_MspInit+0x8e>
 8001bcc:	f503 3386 	add.w	r3, r3, #68608	; 0x10c00
 8001bd0:	2400      	movs	r4, #0
 8001bd2:	9400      	str	r4, [sp, #0]
 8001bd4:	6c5a      	ldr	r2, [r3, #68]	; 0x44
 8001bd6:	481d      	ldr	r0, [pc, #116]	; (8001c4c <HAL_SD_MspInit+0x98>)
 8001bd8:	f442 6200 	orr.w	r2, r2, #2048	; 0x800
 8001bdc:	645a      	str	r2, [r3, #68]	; 0x44
 8001bde:	6c5a      	ldr	r2, [r3, #68]	; 0x44
 8001be0:	f402 6200 	and.w	r2, r2, #2048	; 0x800
 8001be4:	9200      	str	r2, [sp, #0]
 8001be6:	9a00      	ldr	r2, [sp, #0]
 8001be8:	9401      	str	r4, [sp, #4]
 8001bea:	6b1a      	ldr	r2, [r3, #48]	; 0x30
 8001bec:	f042 0204 	orr.w	r2, r2, #4
 8001bf0:	631a      	str	r2, [r3, #48]	; 0x30
 8001bf2:	6b1a      	ldr	r2, [r3, #48]	; 0x30
 8001bf4:	f002 0204 	and.w	r2, r2, #4
 8001bf8:	9201      	str	r2, [sp, #4]
 8001bfa:	9a01      	ldr	r2, [sp, #4]
 8001bfc:	9402      	str	r4, [sp, #8]
 8001bfe:	6b1a      	ldr	r2, [r3, #48]	; 0x30
 8001c00:	f042 0208 	orr.w	r2, r2, #8
 8001c04:	631a      	str	r2, [r3, #48]	; 0x30
 8001c06:	6b1b      	ldr	r3, [r3, #48]	; 0x30
 8001c08:	9405      	str	r4, [sp, #20]
 8001c0a:	f003 0308 	and.w	r3, r3, #8
 8001c0e:	250c      	movs	r5, #12
 8001c10:	9302      	str	r3, [sp, #8]
 8001c12:	9b02      	ldr	r3, [sp, #8]
 8001c14:	2702      	movs	r7, #2
 8001c16:	f44f 53f8 	mov.w	r3, #7936	; 0x1f00
 8001c1a:	2603      	movs	r6, #3
 8001c1c:	eb0d 0105 	add.w	r1, sp, r5
 8001c20:	e9cd 3703 	strd	r3, r7, [sp, #12]
 8001c24:	e9cd 6506 	strd	r6, r5, [sp, #24]
 8001c28:	f000 fc34 	bl	8002494 <HAL_GPIO_Init>
 8001c2c:	2304      	movs	r3, #4
 8001c2e:	4808      	ldr	r0, [pc, #32]	; (8001c50 <HAL_SD_MspInit+0x9c>)
 8001c30:	9507      	str	r5, [sp, #28]
 8001c32:	eb0d 0105 	add.w	r1, sp, r5
 8001c36:	e9cd 3703 	strd	r3, r7, [sp, #12]
 8001c3a:	e9cd 4605 	strd	r4, r6, [sp, #20]
 8001c3e:	f000 fc29 	bl	8002494 <HAL_GPIO_Init>
 8001c42:	b009      	add	sp, #36	; 0x24
 8001c44:	bdf0      	pop	{r4, r5, r6, r7, pc}
 8001c46:	bf00      	nop
 8001c48:	40012c00 	.word	0x40012c00
 8001c4c:	40020800 	.word	0x40020800
 8001c50:	40020c00 	.word	0x40020c00

08001c54 <HAL_SPI_MspInit>:
 8001c54:	b510      	push	{r4, lr}
 8001c56:	4604      	mov	r4, r0
 8001c58:	b088      	sub	sp, #32
 8001c5a:	2214      	movs	r2, #20
 8001c5c:	2100      	movs	r1, #0
 8001c5e:	a803      	add	r0, sp, #12
 8001c60:	f003 fb16 	bl	8005290 <memset>
 8001c64:	6822      	ldr	r2, [r4, #0]
 8001c66:	4b14      	ldr	r3, [pc, #80]	; (8001cb8 <HAL_SPI_MspInit+0x64>)
 8001c68:	429a      	cmp	r2, r3
 8001c6a:	d123      	bne.n	8001cb4 <HAL_SPI_MspInit+0x60>
 8001c6c:	f503 3300 	add.w	r3, r3, #131072	; 0x20000
 8001c70:	2200      	movs	r2, #0
 8001c72:	9201      	str	r2, [sp, #4]
 8001c74:	6c19      	ldr	r1, [r3, #64]	; 0x40
 8001c76:	f441 4180 	orr.w	r1, r1, #16384	; 0x4000
 8001c7a:	6419      	str	r1, [r3, #64]	; 0x40
 8001c7c:	6c19      	ldr	r1, [r3, #64]	; 0x40
 8001c7e:	f401 4180 	and.w	r1, r1, #16384	; 0x4000
 8001c82:	9101      	str	r1, [sp, #4]
 8001c84:	9901      	ldr	r1, [sp, #4]
 8001c86:	9202      	str	r2, [sp, #8]
 8001c88:	6b19      	ldr	r1, [r3, #48]	; 0x30
 8001c8a:	f441 7180 	orr.w	r1, r1, #256	; 0x100
 8001c8e:	6319      	str	r1, [r3, #48]	; 0x30
 8001c90:	6b1b      	ldr	r3, [r3, #48]	; 0x30
 8001c92:	9205      	str	r2, [sp, #20]
 8001c94:	f403 7380 	and.w	r3, r3, #256	; 0x100
 8001c98:	9302      	str	r3, [sp, #8]
 8001c9a:	210f      	movs	r1, #15
 8001c9c:	9b02      	ldr	r3, [sp, #8]
 8001c9e:	2302      	movs	r3, #2
 8001ca0:	e9cd 1303 	strd	r1, r3, [sp, #12]
 8001ca4:	2003      	movs	r0, #3
 8001ca6:	2305      	movs	r3, #5
 8001ca8:	e9cd 0306 	strd	r0, r3, [sp, #24]
 8001cac:	a903      	add	r1, sp, #12
 8001cae:	4803      	ldr	r0, [pc, #12]	; (8001cbc <HAL_SPI_MspInit+0x68>)
 8001cb0:	f000 fbf0 	bl	8002494 <HAL_GPIO_Init>
 8001cb4:	b008      	add	sp, #32
 8001cb6:	bd10      	pop	{r4, pc}
 8001cb8:	40003800 	.word	0x40003800
 8001cbc:	40022000 	.word	0x40022000

08001cc0 <HAL_UART_MspInit>:
 8001cc0:	b510      	push	{r4, lr}
 8001cc2:	4604      	mov	r4, r0
 8001cc4:	b08e      	sub	sp, #56	; 0x38
 8001cc6:	2214      	movs	r2, #20
 8001cc8:	2100      	movs	r1, #0
 8001cca:	a809      	add	r0, sp, #36	; 0x24
 8001ccc:	f003 fae0 	bl	8005290 <memset>
 8001cd0:	6823      	ldr	r3, [r4, #0]
 8001cd2:	4a48      	ldr	r2, [pc, #288]	; (8001df4 <HAL_UART_MspInit+0x134>)
 8001cd4:	4293      	cmp	r3, r2
 8001cd6:	d121      	bne.n	8001d1c <HAL_UART_MspInit+0x5c>
 8001cd8:	4b47      	ldr	r3, [pc, #284]	; (8001df8 <HAL_UART_MspInit+0x138>)
 8001cda:	2200      	movs	r2, #0
 8001cdc:	9201      	str	r2, [sp, #4]
 8001cde:	6c59      	ldr	r1, [r3, #68]	; 0x44
 8001ce0:	f041 0110 	orr.w	r1, r1, #16
 8001ce4:	6459      	str	r1, [r3, #68]	; 0x44
 8001ce6:	6c59      	ldr	r1, [r3, #68]	; 0x44
 8001ce8:	f001 0110 	and.w	r1, r1, #16
 8001cec:	9101      	str	r1, [sp, #4]
 8001cee:	9901      	ldr	r1, [sp, #4]
 8001cf0:	9202      	str	r2, [sp, #8]
 8001cf2:	6b19      	ldr	r1, [r3, #48]	; 0x30
 8001cf4:	f041 0102 	orr.w	r1, r1, #2
 8001cf8:	6319      	str	r1, [r3, #48]	; 0x30
 8001cfa:	6b1b      	ldr	r3, [r3, #48]	; 0x30
 8001cfc:	f003 0302 	and.w	r3, r3, #2
 8001d00:	9302      	str	r3, [sp, #8]
 8001d02:	9b02      	ldr	r3, [sp, #8]
 8001d04:	23c0      	movs	r3, #192	; 0xc0
 8001d06:	9309      	str	r3, [sp, #36]	; 0x24
 8001d08:	2302      	movs	r3, #2
 8001d0a:	e9cd 320a 	strd	r3, r2, [sp, #40]	; 0x28
 8001d0e:	2403      	movs	r4, #3
 8001d10:	2307      	movs	r3, #7
 8001d12:	e9cd 430c 	strd	r4, r3, [sp, #48]	; 0x30
 8001d16:	4839      	ldr	r0, [pc, #228]	; (8001dfc <HAL_UART_MspInit+0x13c>)
 8001d18:	a909      	add	r1, sp, #36	; 0x24
 8001d1a:	e025      	b.n	8001d68 <HAL_UART_MspInit+0xa8>
 8001d1c:	4a38      	ldr	r2, [pc, #224]	; (8001e00 <HAL_UART_MspInit+0x140>)
 8001d1e:	4293      	cmp	r3, r2
 8001d20:	d126      	bne.n	8001d70 <HAL_UART_MspInit+0xb0>
 8001d22:	4b35      	ldr	r3, [pc, #212]	; (8001df8 <HAL_UART_MspInit+0x138>)
 8001d24:	4837      	ldr	r0, [pc, #220]	; (8001e04 <HAL_UART_MspInit+0x144>)
 8001d26:	2200      	movs	r2, #0
 8001d28:	9203      	str	r2, [sp, #12]
 8001d2a:	6c19      	ldr	r1, [r3, #64]	; 0x40
 8001d2c:	f441 3100 	orr.w	r1, r1, #131072	; 0x20000
 8001d30:	6419      	str	r1, [r3, #64]	; 0x40
 8001d32:	6c19      	ldr	r1, [r3, #64]	; 0x40
 8001d34:	f401 3100 	and.w	r1, r1, #131072	; 0x20000
 8001d38:	9103      	str	r1, [sp, #12]
 8001d3a:	9903      	ldr	r1, [sp, #12]
 8001d3c:	9204      	str	r2, [sp, #16]
 8001d3e:	6b19      	ldr	r1, [r3, #48]	; 0x30
 8001d40:	f041 0108 	orr.w	r1, r1, #8
 8001d44:	6319      	str	r1, [r3, #48]	; 0x30
 8001d46:	6b1b      	ldr	r3, [r3, #48]	; 0x30
 8001d48:	920b      	str	r2, [sp, #44]	; 0x2c
 8001d4a:	f003 0308 	and.w	r3, r3, #8
 8001d4e:	9304      	str	r3, [sp, #16]
 8001d50:	9b04      	ldr	r3, [sp, #16]
 8001d52:	f04f 0c60 	mov.w	ip, #96	; 0x60
 8001d56:	2302      	movs	r3, #2
 8001d58:	e9cd c309 	strd	ip, r3, [sp, #36]	; 0x24
 8001d5c:	f04f 0e03 	mov.w	lr, #3
 8001d60:	2307      	movs	r3, #7
 8001d62:	e9cd e30c 	strd	lr, r3, [sp, #48]	; 0x30
 8001d66:	a909      	add	r1, sp, #36	; 0x24
 8001d68:	f000 fb94 	bl	8002494 <HAL_GPIO_Init>
 8001d6c:	b00e      	add	sp, #56	; 0x38
 8001d6e:	bd10      	pop	{r4, pc}
 8001d70:	4a25      	ldr	r2, [pc, #148]	; (8001e08 <HAL_UART_MspInit+0x148>)
 8001d72:	4293      	cmp	r3, r2
 8001d74:	d118      	bne.n	8001da8 <HAL_UART_MspInit+0xe8>
 8001d76:	4b20      	ldr	r3, [pc, #128]	; (8001df8 <HAL_UART_MspInit+0x138>)
 8001d78:	2200      	movs	r2, #0
 8001d7a:	9205      	str	r2, [sp, #20]
 8001d7c:	6c19      	ldr	r1, [r3, #64]	; 0x40
 8001d7e:	f441 2180 	orr.w	r1, r1, #262144	; 0x40000
 8001d82:	6419      	str	r1, [r3, #64]	; 0x40
 8001d84:	6c19      	ldr	r1, [r3, #64]	; 0x40
 8001d86:	f401 2180 	and.w	r1, r1, #262144	; 0x40000
 8001d8a:	9105      	str	r1, [sp, #20]
 8001d8c:	9905      	ldr	r1, [sp, #20]
 8001d8e:	9206      	str	r2, [sp, #24]
 8001d90:	6b19      	ldr	r1, [r3, #48]	; 0x30
 8001d92:	f041 0102 	orr.w	r1, r1, #2
 8001d96:	6319      	str	r1, [r3, #48]	; 0x30
 8001d98:	6b1b      	ldr	r3, [r3, #48]	; 0x30
 8001d9a:	f003 0302 	and.w	r3, r3, #2
 8001d9e:	9306      	str	r3, [sp, #24]
 8001da0:	9b06      	ldr	r3, [sp, #24]
 8001da2:	f44f 6340 	mov.w	r3, #3072	; 0xc00
 8001da6:	e7ae      	b.n	8001d06 <HAL_UART_MspInit+0x46>
 8001da8:	4a18      	ldr	r2, [pc, #96]	; (8001e0c <HAL_UART_MspInit+0x14c>)
 8001daa:	4293      	cmp	r3, r2
 8001dac:	d1de      	bne.n	8001d6c <HAL_UART_MspInit+0xac>
 8001dae:	4b12      	ldr	r3, [pc, #72]	; (8001df8 <HAL_UART_MspInit+0x138>)
 8001db0:	2200      	movs	r2, #0
 8001db2:	9207      	str	r2, [sp, #28]
 8001db4:	6c59      	ldr	r1, [r3, #68]	; 0x44
 8001db6:	f041 0120 	orr.w	r1, r1, #32
 8001dba:	6459      	str	r1, [r3, #68]	; 0x44
 8001dbc:	6c59      	ldr	r1, [r3, #68]	; 0x44
 8001dbe:	f001 0120 	and.w	r1, r1, #32
 8001dc2:	9107      	str	r1, [sp, #28]
 8001dc4:	9907      	ldr	r1, [sp, #28]
 8001dc6:	9208      	str	r2, [sp, #32]
 8001dc8:	6b19      	ldr	r1, [r3, #48]	; 0x30
 8001dca:	f041 0140 	orr.w	r1, r1, #64	; 0x40
 8001dce:	6319      	str	r1, [r3, #48]	; 0x30
 8001dd0:	6b1b      	ldr	r3, [r3, #48]	; 0x30
 8001dd2:	920b      	str	r2, [sp, #44]	; 0x2c
 8001dd4:	f003 0340 	and.w	r3, r3, #64	; 0x40
 8001dd8:	9308      	str	r3, [sp, #32]
 8001dda:	f44f 4184 	mov.w	r1, #16896	; 0x4200
 8001dde:	9b08      	ldr	r3, [sp, #32]
 8001de0:	2302      	movs	r3, #2
 8001de2:	e9cd 1309 	strd	r1, r3, [sp, #36]	; 0x24
 8001de6:	2003      	movs	r0, #3
 8001de8:	2308      	movs	r3, #8
 8001dea:	e9cd 030c 	strd	r0, r3, [sp, #48]	; 0x30
 8001dee:	a909      	add	r1, sp, #36	; 0x24
 8001df0:	4807      	ldr	r0, [pc, #28]	; (8001e10 <HAL_UART_MspInit+0x150>)
 8001df2:	e7b9      	b.n	8001d68 <HAL_UART_MspInit+0xa8>
 8001df4:	40011000 	.word	0x40011000
 8001df8:	40023800 	.word	0x40023800
 8001dfc:	40020400 	.word	0x40020400
 8001e00:	40004400 	.word	0x40004400
 8001e04:	40020c00 	.word	0x40020c00
 8001e08:	40004800 	.word	0x40004800
 8001e0c:	40011400 	.word	0x40011400
 8001e10:	40021800 	.word	0x40021800

08001e14 <HAL_PCD_MspInit>:
 8001e14:	b530      	push	{r4, r5, lr}
 8001e16:	4604      	mov	r4, r0
 8001e18:	b089      	sub	sp, #36	; 0x24
 8001e1a:	2214      	movs	r2, #20
 8001e1c:	2100      	movs	r1, #0
 8001e1e:	a803      	add	r0, sp, #12
 8001e20:	f003 fa36 	bl	8005290 <memset>
 8001e24:	6823      	ldr	r3, [r4, #0]
 8001e26:	f1b3 4fa0 	cmp.w	r3, #1342177280	; 0x50000000
 8001e2a:	d130      	bne.n	8001e8e <HAL_PCD_MspInit+0x7a>
 8001e2c:	4c19      	ldr	r4, [pc, #100]	; (8001e94 <HAL_PCD_MspInit+0x80>)
 8001e2e:	481a      	ldr	r0, [pc, #104]	; (8001e98 <HAL_PCD_MspInit+0x84>)
 8001e30:	2500      	movs	r5, #0
 8001e32:	9501      	str	r5, [sp, #4]
 8001e34:	6b23      	ldr	r3, [r4, #48]	; 0x30
 8001e36:	f043 0301 	orr.w	r3, r3, #1
 8001e3a:	6323      	str	r3, [r4, #48]	; 0x30
 8001e3c:	6b23      	ldr	r3, [r4, #48]	; 0x30
 8001e3e:	9505      	str	r5, [sp, #20]
 8001e40:	f003 0301 	and.w	r3, r3, #1
 8001e44:	9301      	str	r3, [sp, #4]
 8001e46:	9b01      	ldr	r3, [sp, #4]
 8001e48:	a903      	add	r1, sp, #12
 8001e4a:	f44f 7300 	mov.w	r3, #512	; 0x200
 8001e4e:	e9cd 3503 	strd	r3, r5, [sp, #12]
 8001e52:	f000 fb1f 	bl	8002494 <HAL_GPIO_Init>
 8001e56:	f44f 52c0 	mov.w	r2, #6144	; 0x1800
 8001e5a:	2302      	movs	r3, #2
 8001e5c:	e9cd 2303 	strd	r2, r3, [sp, #12]
 8001e60:	2103      	movs	r1, #3
 8001e62:	230a      	movs	r3, #10
 8001e64:	e9cd 1306 	strd	r1, r3, [sp, #24]
 8001e68:	480b      	ldr	r0, [pc, #44]	; (8001e98 <HAL_PCD_MspInit+0x84>)
 8001e6a:	9505      	str	r5, [sp, #20]
 8001e6c:	a903      	add	r1, sp, #12
 8001e6e:	f000 fb11 	bl	8002494 <HAL_GPIO_Init>
 8001e72:	6b63      	ldr	r3, [r4, #52]	; 0x34
 8001e74:	f043 0380 	orr.w	r3, r3, #128	; 0x80
 8001e78:	6363      	str	r3, [r4, #52]	; 0x34
 8001e7a:	9502      	str	r5, [sp, #8]
 8001e7c:	6c63      	ldr	r3, [r4, #68]	; 0x44
 8001e7e:	f443 4380 	orr.w	r3, r3, #16384	; 0x4000
 8001e82:	6463      	str	r3, [r4, #68]	; 0x44
 8001e84:	6c63      	ldr	r3, [r4, #68]	; 0x44
 8001e86:	f403 4380 	and.w	r3, r3, #16384	; 0x4000
 8001e8a:	9302      	str	r3, [sp, #8]
 8001e8c:	9b02      	ldr	r3, [sp, #8]
 8001e8e:	b009      	add	sp, #36	; 0x24
 8001e90:	bd30      	pop	{r4, r5, pc}
 8001e92:	bf00      	nop
 8001e94:	40023800 	.word	0x40023800
 8001e98:	40020000 	.word	0x40020000

08001e9c <HAL_SDRAM_MspInit>:
 8001e9c:	b5f0      	push	{r4, r5, r6, r7, lr}
 8001e9e:	4b2b      	ldr	r3, [pc, #172]	; (8001f4c <HAL_SDRAM_MspInit+0xb0>)
 8001ea0:	681c      	ldr	r4, [r3, #0]
 8001ea2:	b087      	sub	sp, #28
 8001ea4:	2c00      	cmp	r4, #0
 8001ea6:	d14f      	bne.n	8001f48 <HAL_SDRAM_MspInit+0xac>
 8001ea8:	2201      	movs	r2, #1
 8001eaa:	601a      	str	r2, [r3, #0]
 8001eac:	4b28      	ldr	r3, [pc, #160]	; (8001f50 <HAL_SDRAM_MspInit+0xb4>)
 8001eae:	9400      	str	r4, [sp, #0]
 8001eb0:	6b9a      	ldr	r2, [r3, #56]	; 0x38
 8001eb2:	4828      	ldr	r0, [pc, #160]	; (8001f54 <HAL_SDRAM_MspInit+0xb8>)
 8001eb4:	f042 0201 	orr.w	r2, r2, #1
 8001eb8:	639a      	str	r2, [r3, #56]	; 0x38
 8001eba:	6b9b      	ldr	r3, [r3, #56]	; 0x38
 8001ebc:	9403      	str	r4, [sp, #12]
 8001ebe:	f003 0301 	and.w	r3, r3, #1
 8001ec2:	9300      	str	r3, [sp, #0]
 8001ec4:	2702      	movs	r7, #2
 8001ec6:	2603      	movs	r6, #3
 8001ec8:	250c      	movs	r5, #12
 8001eca:	9b00      	ldr	r3, [sp, #0]
 8001ecc:	a901      	add	r1, sp, #4
 8001ece:	f64f 033f 	movw	r3, #63551	; 0xf83f
 8001ed2:	e9cd 3701 	strd	r3, r7, [sp, #4]
 8001ed6:	e9cd 6504 	strd	r6, r5, [sp, #16]
 8001eda:	f000 fadb 	bl	8002494 <HAL_GPIO_Init>
 8001ede:	2360      	movs	r3, #96	; 0x60
 8001ee0:	481d      	ldr	r0, [pc, #116]	; (8001f58 <HAL_SDRAM_MspInit+0xbc>)
 8001ee2:	9505      	str	r5, [sp, #20]
 8001ee4:	a901      	add	r1, sp, #4
 8001ee6:	e9cd 3701 	strd	r3, r7, [sp, #4]
 8001eea:	e9cd 4603 	strd	r4, r6, [sp, #12]
 8001eee:	f000 fad1 	bl	8002494 <HAL_GPIO_Init>
 8001ef2:	f248 1333 	movw	r3, #33075	; 0x8133
 8001ef6:	4819      	ldr	r0, [pc, #100]	; (8001f5c <HAL_SDRAM_MspInit+0xc0>)
 8001ef8:	9505      	str	r5, [sp, #20]
 8001efa:	a901      	add	r1, sp, #4
 8001efc:	e9cd 3701 	strd	r3, r7, [sp, #4]
 8001f00:	e9cd 4603 	strd	r4, r6, [sp, #12]
 8001f04:	f000 fac6 	bl	8002494 <HAL_GPIO_Init>
 8001f08:	f64f 7383 	movw	r3, #65411	; 0xff83
 8001f0c:	4814      	ldr	r0, [pc, #80]	; (8001f60 <HAL_SDRAM_MspInit+0xc4>)
 8001f0e:	9505      	str	r5, [sp, #20]
 8001f10:	a901      	add	r1, sp, #4
 8001f12:	e9cd 3701 	strd	r3, r7, [sp, #4]
 8001f16:	e9cd 4603 	strd	r4, r6, [sp, #12]
 8001f1a:	f000 fabb 	bl	8002494 <HAL_GPIO_Init>
 8001f1e:	f24c 7303 	movw	r3, #50947	; 0xc703
 8001f22:	4810      	ldr	r0, [pc, #64]	; (8001f64 <HAL_SDRAM_MspInit+0xc8>)
 8001f24:	9505      	str	r5, [sp, #20]
 8001f26:	a901      	add	r1, sp, #4
 8001f28:	e9cd 3701 	strd	r3, r7, [sp, #4]
 8001f2c:	e9cd 4603 	strd	r4, r6, [sp, #12]
 8001f30:	f000 fab0 	bl	8002494 <HAL_GPIO_Init>
 8001f34:	2320      	movs	r3, #32
 8001f36:	480c      	ldr	r0, [pc, #48]	; (8001f68 <HAL_SDRAM_MspInit+0xcc>)
 8001f38:	9505      	str	r5, [sp, #20]
 8001f3a:	a901      	add	r1, sp, #4
 8001f3c:	e9cd 3701 	strd	r3, r7, [sp, #4]
 8001f40:	e9cd 4603 	strd	r4, r6, [sp, #12]
 8001f44:	f000 faa6 	bl	8002494 <HAL_GPIO_Init>
 8001f48:	b007      	add	sp, #28
 8001f4a:	bdf0      	pop	{r4, r5, r6, r7, pc}
 8001f4c:	20000094 	.word	0x20000094
 8001f50:	40023800 	.word	0x40023800
 8001f54:	40021400 	.word	0x40021400
 8001f58:	40021c00 	.word	0x40021c00
 8001f5c:	40021800 	.word	0x40021800
 8001f60:	40021000 	.word	0x40021000
 8001f64:	40020c00 	.word	0x40020c00
 8001f68:	40020400 	.word	0x40020400

08001f6c <NMI_Handler>:
 8001f6c:	e7fe      	b.n	8001f6c <NMI_Handler>

08001f6e <HardFault_Handler>:
 8001f6e:	e7fe      	b.n	8001f6e <HardFault_Handler>

08001f70 <MemManage_Handler>:
 8001f70:	e7fe      	b.n	8001f70 <MemManage_Handler>

08001f72 <BusFault_Handler>:
 8001f72:	e7fe      	b.n	8001f72 <BusFault_Handler>

08001f74 <UsageFault_Handler>:
 8001f74:	e7fe      	b.n	8001f74 <UsageFault_Handler>

08001f76 <SVC_Handler>:
 8001f76:	4770      	bx	lr

08001f78 <DebugMon_Handler>:
 8001f78:	4770      	bx	lr

08001f7a <PendSV_Handler>:
 8001f7a:	4770      	bx	lr

08001f7c <SysTick_Handler>:
 8001f7c:	f000 b892 	b.w	80020a4 <HAL_IncTick>

08001f80 <_sbrk>:
 8001f80:	4b0b      	ldr	r3, [pc, #44]	; (8001fb0 <_sbrk+0x30>)
 8001f82:	6819      	ldr	r1, [r3, #0]
 8001f84:	b510      	push	{r4, lr}
 8001f86:	4602      	mov	r2, r0
 8001f88:	b909      	cbnz	r1, 8001f8e <_sbrk+0xe>
 8001f8a:	490a      	ldr	r1, [pc, #40]	; (8001fb4 <_sbrk+0x34>)
 8001f8c:	6019      	str	r1, [r3, #0]
 8001f8e:	6818      	ldr	r0, [r3, #0]
 8001f90:	4909      	ldr	r1, [pc, #36]	; (8001fb8 <_sbrk+0x38>)
 8001f92:	4c0a      	ldr	r4, [pc, #40]	; (8001fbc <_sbrk+0x3c>)
 8001f94:	4402      	add	r2, r0
 8001f96:	1b09      	subs	r1, r1, r4
 8001f98:	428a      	cmp	r2, r1
 8001f9a:	d906      	bls.n	8001faa <_sbrk+0x2a>
 8001f9c:	f003 f94e 	bl	800523c <__errno>
 8001fa0:	230c      	movs	r3, #12
 8001fa2:	6003      	str	r3, [r0, #0]
 8001fa4:	f04f 30ff 	mov.w	r0, #4294967295
 8001fa8:	bd10      	pop	{r4, pc}
 8001faa:	601a      	str	r2, [r3, #0]
 8001fac:	e7fc      	b.n	8001fa8 <_sbrk+0x28>
 8001fae:	bf00      	nop
 8001fb0:	20000098 	.word	0x20000098
 8001fb4:	20000cf8 	.word	0x20000cf8
 8001fb8:	20030000 	.word	0x20030000
 8001fbc:	00000400 	.word	0x00000400

08001fc0 <SystemInit>:
 8001fc0:	4a03      	ldr	r2, [pc, #12]	; (8001fd0 <SystemInit+0x10>)
 8001fc2:	f8d2 3088 	ldr.w	r3, [r2, #136]	; 0x88
 8001fc6:	f443 0370 	orr.w	r3, r3, #15728640	; 0xf00000
 8001fca:	f8c2 3088 	str.w	r3, [r2, #136]	; 0x88
 8001fce:	4770      	bx	lr
 8001fd0:	e000ed00 	.word	0xe000ed00

08001fd4 <Reset_Handler>:
 8001fd4:	f8df d034 	ldr.w	sp, [pc, #52]	; 800200c <LoopFillZerobss+0x12>
 8001fd8:	480d      	ldr	r0, [pc, #52]	; (8002010 <LoopFillZerobss+0x16>)
 8001fda:	490e      	ldr	r1, [pc, #56]	; (8002014 <LoopFillZerobss+0x1a>)
 8001fdc:	4a0e      	ldr	r2, [pc, #56]	; (8002018 <LoopFillZerobss+0x1e>)
 8001fde:	2300      	movs	r3, #0
 8001fe0:	e002      	b.n	8001fe8 <LoopCopyDataInit>

08001fe2 <CopyDataInit>:
 8001fe2:	58d4      	ldr	r4, [r2, r3]
 8001fe4:	50c4      	str	r4, [r0, r3]
 8001fe6:	3304      	adds	r3, #4

08001fe8 <LoopCopyDataInit>:
 8001fe8:	18c4      	adds	r4, r0, r3
 8001fea:	428c      	cmp	r4, r1
 8001fec:	d3f9      	bcc.n	8001fe2 <CopyDataInit>
 8001fee:	4a0b      	ldr	r2, [pc, #44]	; (800201c <LoopFillZerobss+0x22>)
 8001ff0:	4c0b      	ldr	r4, [pc, #44]	; (8002020 <LoopFillZerobss+0x26>)
 8001ff2:	2300      	movs	r3, #0
 8001ff4:	e001      	b.n	8001ffa <LoopFillZerobss>

08001ff6 <FillZerobss>:
 8001ff6:	6013      	str	r3, [r2, #0]
 8001ff8:	3204      	adds	r2, #4

08001ffa <LoopFillZerobss>:
 8001ffa:	42a2      	cmp	r2, r4
 8001ffc:	d3fb      	bcc.n	8001ff6 <FillZerobss>
 8001ffe:	f7ff ffdf 	bl	8001fc0 <SystemInit>
 8002002:	f003 f921 	bl	8005248 <__libc_init_array>
 8002006:	f7ff f8d7 	bl	80011b8 <main>
 800200a:	4770      	bx	lr
 800200c:	20030000 	.word	0x20030000
 8002010:	20000000 	.word	0x20000000
 8002014:	20000074 	.word	0x20000074
 8002018:	08006124 	.word	0x08006124
 800201c:	20000074 	.word	0x20000074
 8002020:	20000cf4 	.word	0x20000cf4

08002024 <ADC_IRQHandler>:
 8002024:	e7fe      	b.n	8002024 <ADC_IRQHandler>
	...

08002028 <HAL_InitTick>:
 8002028:	b538      	push	{r3, r4, r5, lr}
 800202a:	4a0e      	ldr	r2, [pc, #56]	; (8002064 <HAL_InitTick+0x3c>)
 800202c:	4b0e      	ldr	r3, [pc, #56]	; (8002068 <HAL_InitTick+0x40>)
 800202e:	4605      	mov	r5, r0
 8002030:	7818      	ldrb	r0, [r3, #0]
 8002032:	f44f 737a 	mov.w	r3, #1000	; 0x3e8
 8002036:	fbb3 f3f0 	udiv	r3, r3, r0
 800203a:	6810      	ldr	r0, [r2, #0]
 800203c:	fbb0 f0f3 	udiv	r0, r0, r3
 8002040:	f000 f9dc 	bl	80023fc <HAL_SYSTICK_Config>
 8002044:	4604      	mov	r4, r0
 8002046:	b958      	cbnz	r0, 8002060 <HAL_InitTick+0x38>
 8002048:	2d0f      	cmp	r5, #15
 800204a:	d809      	bhi.n	8002060 <HAL_InitTick+0x38>
 800204c:	4602      	mov	r2, r0
 800204e:	4629      	mov	r1, r5
 8002050:	f04f 30ff 	mov.w	r0, #4294967295
 8002054:	f000 f9a0 	bl	8002398 <HAL_NVIC_SetPriority>
 8002058:	4b04      	ldr	r3, [pc, #16]	; (800206c <HAL_InitTick+0x44>)
 800205a:	4620      	mov	r0, r4
 800205c:	601d      	str	r5, [r3, #0]
 800205e:	bd38      	pop	{r3, r4, r5, pc}
 8002060:	2001      	movs	r0, #1
 8002062:	e7fc      	b.n	800205e <HAL_InitTick+0x36>
 8002064:	20000000 	.word	0x20000000
 8002068:	20000004 	.word	0x20000004
 800206c:	20000008 	.word	0x20000008

08002070 <HAL_Init>:
 8002070:	b508      	push	{r3, lr}
 8002072:	4b0b      	ldr	r3, [pc, #44]	; (80020a0 <HAL_Init+0x30>)
 8002074:	681a      	ldr	r2, [r3, #0]
 8002076:	f442 7200 	orr.w	r2, r2, #512	; 0x200
 800207a:	601a      	str	r2, [r3, #0]
 800207c:	681a      	ldr	r2, [r3, #0]
 800207e:	f442 6280 	orr.w	r2, r2, #1024	; 0x400
 8002082:	601a      	str	r2, [r3, #0]
 8002084:	681a      	ldr	r2, [r3, #0]
 8002086:	f442 7280 	orr.w	r2, r2, #256	; 0x100
 800208a:	601a      	str	r2, [r3, #0]
 800208c:	2003      	movs	r0, #3
 800208e:	f000 f971 	bl	8002374 <HAL_NVIC_SetPriorityGrouping>
 8002092:	2000      	movs	r0, #0
 8002094:	f7ff ffc8 	bl	8002028 <HAL_InitTick>
 8002098:	f7ff fc46 	bl	8001928 <HAL_MspInit>
 800209c:	2000      	movs	r0, #0
 800209e:	bd08      	pop	{r3, pc}
 80020a0:	40023c00 	.word	0x40023c00

080020a4 <HAL_IncTick>:
 80020a4:	4a03      	ldr	r2, [pc, #12]	; (80020b4 <HAL_IncTick+0x10>)
 80020a6:	4b04      	ldr	r3, [pc, #16]	; (80020b8 <HAL_IncTick+0x14>)
 80020a8:	6811      	ldr	r1, [r2, #0]
 80020aa:	781b      	ldrb	r3, [r3, #0]
 80020ac:	440b      	add	r3, r1
 80020ae:	6013      	str	r3, [r2, #0]
 80020b0:	4770      	bx	lr
 80020b2:	bf00      	nop
 80020b4:	20000878 	.word	0x20000878
 80020b8:	20000004 	.word	0x20000004

080020bc <HAL_GetTick>:
 80020bc:	4b01      	ldr	r3, [pc, #4]	; (80020c4 <HAL_GetTick+0x8>)
 80020be:	6818      	ldr	r0, [r3, #0]
 80020c0:	4770      	bx	lr
 80020c2:	bf00      	nop
 80020c4:	20000878 	.word	0x20000878

080020c8 <HAL_Delay>:
 80020c8:	b538      	push	{r3, r4, r5, lr}
 80020ca:	4604      	mov	r4, r0
 80020cc:	f7ff fff6 	bl	80020bc <HAL_GetTick>
 80020d0:	1c63      	adds	r3, r4, #1
 80020d2:	bf1c      	itt	ne
 80020d4:	4b05      	ldrne	r3, [pc, #20]	; (80020ec <HAL_Delay+0x24>)
 80020d6:	781b      	ldrbne	r3, [r3, #0]
 80020d8:	4605      	mov	r5, r0
 80020da:	bf18      	it	ne
 80020dc:	18e4      	addne	r4, r4, r3
 80020de:	f7ff ffed 	bl	80020bc <HAL_GetTick>
 80020e2:	1b43      	subs	r3, r0, r5
 80020e4:	42a3      	cmp	r3, r4
 80020e6:	d3fa      	bcc.n	80020de <HAL_Delay+0x16>
 80020e8:	bd38      	pop	{r3, r4, r5, pc}
 80020ea:	bf00      	nop
 80020ec:	20000004 	.word	0x20000004

080020f0 <HAL_ADC_Init>:
 80020f0:	b538      	push	{r3, r4, r5, lr}
 80020f2:	4604      	mov	r4, r0
 80020f4:	2800      	cmp	r0, #0
 80020f6:	f000 809b 	beq.w	8002230 <HAL_ADC_Init+0x140>
 80020fa:	6c05      	ldr	r5, [r0, #64]	; 0x40
 80020fc:	b925      	cbnz	r5, 8002108 <HAL_ADC_Init+0x18>
 80020fe:	f7ff fc2f 	bl	8001960 <HAL_ADC_MspInit>
 8002102:	6465      	str	r5, [r4, #68]	; 0x44
 8002104:	f884 503c 	strb.w	r5, [r4, #60]	; 0x3c
 8002108:	6c23      	ldr	r3, [r4, #64]	; 0x40
 800210a:	06db      	lsls	r3, r3, #27
 800210c:	f100 808e 	bmi.w	800222c <HAL_ADC_Init+0x13c>
 8002110:	6c23      	ldr	r3, [r4, #64]	; 0x40
 8002112:	f423 5388 	bic.w	r3, r3, #4352	; 0x1100
 8002116:	f023 0302 	bic.w	r3, r3, #2
 800211a:	f043 0302 	orr.w	r3, r3, #2
 800211e:	6423      	str	r3, [r4, #64]	; 0x40
 8002120:	4b44      	ldr	r3, [pc, #272]	; (8002234 <HAL_ADC_Init+0x144>)
 8002122:	685a      	ldr	r2, [r3, #4]
 8002124:	f422 3240 	bic.w	r2, r2, #196608	; 0x30000
 8002128:	605a      	str	r2, [r3, #4]
 800212a:	685a      	ldr	r2, [r3, #4]
 800212c:	6861      	ldr	r1, [r4, #4]
 800212e:	430a      	orrs	r2, r1
 8002130:	605a      	str	r2, [r3, #4]
 8002132:	6823      	ldr	r3, [r4, #0]
 8002134:	6921      	ldr	r1, [r4, #16]
 8002136:	685a      	ldr	r2, [r3, #4]
 8002138:	f422 7280 	bic.w	r2, r2, #256	; 0x100
 800213c:	605a      	str	r2, [r3, #4]
 800213e:	685a      	ldr	r2, [r3, #4]
 8002140:	ea42 2201 	orr.w	r2, r2, r1, lsl #8
 8002144:	605a      	str	r2, [r3, #4]
 8002146:	685a      	ldr	r2, [r3, #4]
 8002148:	68a1      	ldr	r1, [r4, #8]
 800214a:	f022 7240 	bic.w	r2, r2, #50331648	; 0x3000000
 800214e:	605a      	str	r2, [r3, #4]
 8002150:	685a      	ldr	r2, [r3, #4]
 8002152:	430a      	orrs	r2, r1
 8002154:	605a      	str	r2, [r3, #4]
 8002156:	689a      	ldr	r2, [r3, #8]
 8002158:	68e1      	ldr	r1, [r4, #12]
 800215a:	f422 6200 	bic.w	r2, r2, #2048	; 0x800
 800215e:	609a      	str	r2, [r3, #8]
 8002160:	689a      	ldr	r2, [r3, #8]
 8002162:	430a      	orrs	r2, r1
 8002164:	609a      	str	r2, [r3, #8]
 8002166:	4934      	ldr	r1, [pc, #208]	; (8002238 <HAL_ADC_Init+0x148>)
 8002168:	6aa2      	ldr	r2, [r4, #40]	; 0x28
 800216a:	428a      	cmp	r2, r1
 800216c:	d052      	beq.n	8002214 <HAL_ADC_Init+0x124>
 800216e:	6899      	ldr	r1, [r3, #8]
 8002170:	f021 6170 	bic.w	r1, r1, #251658240	; 0xf000000
 8002174:	6099      	str	r1, [r3, #8]
 8002176:	6899      	ldr	r1, [r3, #8]
 8002178:	430a      	orrs	r2, r1
 800217a:	609a      	str	r2, [r3, #8]
 800217c:	689a      	ldr	r2, [r3, #8]
 800217e:	6ae1      	ldr	r1, [r4, #44]	; 0x2c
 8002180:	f022 5240 	bic.w	r2, r2, #805306368	; 0x30000000
 8002184:	609a      	str	r2, [r3, #8]
 8002186:	689a      	ldr	r2, [r3, #8]
 8002188:	430a      	orrs	r2, r1
 800218a:	609a      	str	r2, [r3, #8]
 800218c:	689a      	ldr	r2, [r3, #8]
 800218e:	f022 0202 	bic.w	r2, r2, #2
 8002192:	609a      	str	r2, [r3, #8]
 8002194:	689a      	ldr	r2, [r3, #8]
 8002196:	7e21      	ldrb	r1, [r4, #24]
 8002198:	ea42 0241 	orr.w	r2, r2, r1, lsl #1
 800219c:	609a      	str	r2, [r3, #8]
 800219e:	f894 2020 	ldrb.w	r2, [r4, #32]
 80021a2:	2a00      	cmp	r2, #0
 80021a4:	d03e      	beq.n	8002224 <HAL_ADC_Init+0x134>
 80021a6:	685a      	ldr	r2, [r3, #4]
 80021a8:	6a61      	ldr	r1, [r4, #36]	; 0x24
 80021aa:	f442 6200 	orr.w	r2, r2, #2048	; 0x800
 80021ae:	605a      	str	r2, [r3, #4]
 80021b0:	685a      	ldr	r2, [r3, #4]
 80021b2:	f422 4260 	bic.w	r2, r2, #57344	; 0xe000
 80021b6:	605a      	str	r2, [r3, #4]
 80021b8:	685a      	ldr	r2, [r3, #4]
 80021ba:	3901      	subs	r1, #1
 80021bc:	ea42 3241 	orr.w	r2, r2, r1, lsl #13
 80021c0:	605a      	str	r2, [r3, #4]
 80021c2:	6ada      	ldr	r2, [r3, #44]	; 0x2c
 80021c4:	69e1      	ldr	r1, [r4, #28]
 80021c6:	f422 0270 	bic.w	r2, r2, #15728640	; 0xf00000
 80021ca:	62da      	str	r2, [r3, #44]	; 0x2c
 80021cc:	6ada      	ldr	r2, [r3, #44]	; 0x2c
 80021ce:	3901      	subs	r1, #1
 80021d0:	ea42 5201 	orr.w	r2, r2, r1, lsl #20
 80021d4:	62da      	str	r2, [r3, #44]	; 0x2c
 80021d6:	689a      	ldr	r2, [r3, #8]
 80021d8:	f422 7200 	bic.w	r2, r2, #512	; 0x200
 80021dc:	609a      	str	r2, [r3, #8]
 80021de:	689a      	ldr	r2, [r3, #8]
 80021e0:	f894 1030 	ldrb.w	r1, [r4, #48]	; 0x30
 80021e4:	ea42 2241 	orr.w	r2, r2, r1, lsl #9
 80021e8:	609a      	str	r2, [r3, #8]
 80021ea:	689a      	ldr	r2, [r3, #8]
 80021ec:	6961      	ldr	r1, [r4, #20]
 80021ee:	f422 6280 	bic.w	r2, r2, #1024	; 0x400
 80021f2:	609a      	str	r2, [r3, #8]
 80021f4:	689a      	ldr	r2, [r3, #8]
 80021f6:	2000      	movs	r0, #0
 80021f8:	ea42 2281 	orr.w	r2, r2, r1, lsl #10
 80021fc:	609a      	str	r2, [r3, #8]
 80021fe:	6460      	str	r0, [r4, #68]	; 0x44
 8002200:	6c23      	ldr	r3, [r4, #64]	; 0x40
 8002202:	f023 0303 	bic.w	r3, r3, #3
 8002206:	f043 0301 	orr.w	r3, r3, #1
 800220a:	6423      	str	r3, [r4, #64]	; 0x40
 800220c:	2300      	movs	r3, #0
 800220e:	f884 303c 	strb.w	r3, [r4, #60]	; 0x3c
 8002212:	bd38      	pop	{r3, r4, r5, pc}
 8002214:	689a      	ldr	r2, [r3, #8]
 8002216:	f022 6270 	bic.w	r2, r2, #251658240	; 0xf000000
 800221a:	609a      	str	r2, [r3, #8]
 800221c:	689a      	ldr	r2, [r3, #8]
 800221e:	f022 5240 	bic.w	r2, r2, #805306368	; 0x30000000
 8002222:	e7b2      	b.n	800218a <HAL_ADC_Init+0x9a>
 8002224:	685a      	ldr	r2, [r3, #4]
 8002226:	f422 6200 	bic.w	r2, r2, #2048	; 0x800
 800222a:	e7c9      	b.n	80021c0 <HAL_ADC_Init+0xd0>
 800222c:	2001      	movs	r0, #1
 800222e:	e7ed      	b.n	800220c <HAL_ADC_Init+0x11c>
 8002230:	2001      	movs	r0, #1
 8002232:	e7ee      	b.n	8002212 <HAL_ADC_Init+0x122>
 8002234:	40012300 	.word	0x40012300
 8002238:	0f000001 	.word	0x0f000001

0800223c <HAL_ADC_ConfigChannel>:
 800223c:	b5f7      	push	{r0, r1, r2, r4, r5, r6, r7, lr}
 800223e:	2300      	movs	r3, #0
 8002240:	9301      	str	r3, [sp, #4]
 8002242:	f890 303c 	ldrb.w	r3, [r0, #60]	; 0x3c
 8002246:	2b01      	cmp	r3, #1
 8002248:	d069      	beq.n	800231e <HAL_ADC_ConfigChannel+0xe2>
 800224a:	2301      	movs	r3, #1
 800224c:	f880 303c 	strb.w	r3, [r0, #60]	; 0x3c
 8002250:	680d      	ldr	r5, [r1, #0]
 8002252:	6803      	ldr	r3, [r0, #0]
 8002254:	688e      	ldr	r6, [r1, #8]
 8002256:	2d09      	cmp	r5, #9
 8002258:	b2ac      	uxth	r4, r5
 800225a:	d934      	bls.n	80022c6 <HAL_ADC_ConfigChannel+0x8a>
 800225c:	eb04 0244 	add.w	r2, r4, r4, lsl #1
 8002260:	68df      	ldr	r7, [r3, #12]
 8002262:	3a1e      	subs	r2, #30
 8002264:	f04f 0c07 	mov.w	ip, #7
 8002268:	fa0c fc02 	lsl.w	ip, ip, r2
 800226c:	ea27 070c 	bic.w	r7, r7, ip
 8002270:	60df      	str	r7, [r3, #12]
 8002272:	68df      	ldr	r7, [r3, #12]
 8002274:	fa06 f202 	lsl.w	r2, r6, r2
 8002278:	433a      	orrs	r2, r7
 800227a:	60da      	str	r2, [r3, #12]
 800227c:	6849      	ldr	r1, [r1, #4]
 800227e:	2906      	cmp	r1, #6
 8002280:	eb01 0281 	add.w	r2, r1, r1, lsl #2
 8002284:	d82f      	bhi.n	80022e6 <HAL_ADC_ConfigChannel+0xaa>
 8002286:	6b59      	ldr	r1, [r3, #52]	; 0x34
 8002288:	3a05      	subs	r2, #5
 800228a:	261f      	movs	r6, #31
 800228c:	4096      	lsls	r6, r2
 800228e:	ea21 0106 	bic.w	r1, r1, r6
 8002292:	6359      	str	r1, [r3, #52]	; 0x34
 8002294:	6b59      	ldr	r1, [r3, #52]	; 0x34
 8002296:	fa04 f202 	lsl.w	r2, r4, r2
 800229a:	430a      	orrs	r2, r1
 800229c:	635a      	str	r2, [r3, #52]	; 0x34
 800229e:	4a30      	ldr	r2, [pc, #192]	; (8002360 <HAL_ADC_ConfigChannel+0x124>)
 80022a0:	4293      	cmp	r3, r2
 80022a2:	d10a      	bne.n	80022ba <HAL_ADC_ConfigChannel+0x7e>
 80022a4:	2d12      	cmp	r5, #18
 80022a6:	d13c      	bne.n	8002322 <HAL_ADC_ConfigChannel+0xe6>
 80022a8:	4b2e      	ldr	r3, [pc, #184]	; (8002364 <HAL_ADC_ConfigChannel+0x128>)
 80022aa:	685a      	ldr	r2, [r3, #4]
 80022ac:	f422 0200 	bic.w	r2, r2, #8388608	; 0x800000
 80022b0:	605a      	str	r2, [r3, #4]
 80022b2:	685a      	ldr	r2, [r3, #4]
 80022b4:	f442 0280 	orr.w	r2, r2, #4194304	; 0x400000
 80022b8:	605a      	str	r2, [r3, #4]
 80022ba:	2300      	movs	r3, #0
 80022bc:	f880 303c 	strb.w	r3, [r0, #60]	; 0x3c
 80022c0:	4618      	mov	r0, r3
 80022c2:	b003      	add	sp, #12
 80022c4:	bdf0      	pop	{r4, r5, r6, r7, pc}
 80022c6:	691f      	ldr	r7, [r3, #16]
 80022c8:	eb05 0245 	add.w	r2, r5, r5, lsl #1
 80022cc:	f04f 0c07 	mov.w	ip, #7
 80022d0:	fa0c fc02 	lsl.w	ip, ip, r2
 80022d4:	ea27 070c 	bic.w	r7, r7, ip
 80022d8:	611f      	str	r7, [r3, #16]
 80022da:	691f      	ldr	r7, [r3, #16]
 80022dc:	fa06 f202 	lsl.w	r2, r6, r2
 80022e0:	433a      	orrs	r2, r7
 80022e2:	611a      	str	r2, [r3, #16]
 80022e4:	e7ca      	b.n	800227c <HAL_ADC_ConfigChannel+0x40>
 80022e6:	290c      	cmp	r1, #12
 80022e8:	f04f 011f 	mov.w	r1, #31
 80022ec:	d80b      	bhi.n	8002306 <HAL_ADC_ConfigChannel+0xca>
 80022ee:	6b1e      	ldr	r6, [r3, #48]	; 0x30
 80022f0:	3a23      	subs	r2, #35	; 0x23
 80022f2:	4091      	lsls	r1, r2
 80022f4:	ea26 0101 	bic.w	r1, r6, r1
 80022f8:	6319      	str	r1, [r3, #48]	; 0x30
 80022fa:	6b19      	ldr	r1, [r3, #48]	; 0x30
 80022fc:	fa04 f202 	lsl.w	r2, r4, r2
 8002300:	430a      	orrs	r2, r1
 8002302:	631a      	str	r2, [r3, #48]	; 0x30
 8002304:	e7cb      	b.n	800229e <HAL_ADC_ConfigChannel+0x62>
 8002306:	6ade      	ldr	r6, [r3, #44]	; 0x2c
 8002308:	3a41      	subs	r2, #65	; 0x41
 800230a:	4091      	lsls	r1, r2
 800230c:	ea26 0101 	bic.w	r1, r6, r1
 8002310:	62d9      	str	r1, [r3, #44]	; 0x2c
 8002312:	6ad9      	ldr	r1, [r3, #44]	; 0x2c
 8002314:	fa04 f202 	lsl.w	r2, r4, r2
 8002318:	430a      	orrs	r2, r1
 800231a:	62da      	str	r2, [r3, #44]	; 0x2c
 800231c:	e7bf      	b.n	800229e <HAL_ADC_ConfigChannel+0x62>
 800231e:	2002      	movs	r0, #2
 8002320:	e7cf      	b.n	80022c2 <HAL_ADC_ConfigChannel+0x86>
 8002322:	4b11      	ldr	r3, [pc, #68]	; (8002368 <HAL_ADC_ConfigChannel+0x12c>)
 8002324:	429d      	cmp	r5, r3
 8002326:	d001      	beq.n	800232c <HAL_ADC_ConfigChannel+0xf0>
 8002328:	2d11      	cmp	r5, #17
 800232a:	d1c6      	bne.n	80022ba <HAL_ADC_ConfigChannel+0x7e>
 800232c:	4b0d      	ldr	r3, [pc, #52]	; (8002364 <HAL_ADC_ConfigChannel+0x128>)
 800232e:	685a      	ldr	r2, [r3, #4]
 8002330:	f422 0280 	bic.w	r2, r2, #4194304	; 0x400000
 8002334:	605a      	str	r2, [r3, #4]
 8002336:	685a      	ldr	r2, [r3, #4]
 8002338:	f442 0200 	orr.w	r2, r2, #8388608	; 0x800000
 800233c:	605a      	str	r2, [r3, #4]
 800233e:	4b0a      	ldr	r3, [pc, #40]	; (8002368 <HAL_ADC_ConfigChannel+0x12c>)
 8002340:	429d      	cmp	r5, r3
 8002342:	d1ba      	bne.n	80022ba <HAL_ADC_ConfigChannel+0x7e>
 8002344:	4b09      	ldr	r3, [pc, #36]	; (800236c <HAL_ADC_ConfigChannel+0x130>)
 8002346:	4a0a      	ldr	r2, [pc, #40]	; (8002370 <HAL_ADC_ConfigChannel+0x134>)
 8002348:	681b      	ldr	r3, [r3, #0]
 800234a:	fbb3 f2f2 	udiv	r2, r3, r2
 800234e:	230a      	movs	r3, #10
 8002350:	4353      	muls	r3, r2
 8002352:	9301      	str	r3, [sp, #4]
 8002354:	9b01      	ldr	r3, [sp, #4]
 8002356:	2b00      	cmp	r3, #0
 8002358:	d0af      	beq.n	80022ba <HAL_ADC_ConfigChannel+0x7e>
 800235a:	9b01      	ldr	r3, [sp, #4]
 800235c:	3b01      	subs	r3, #1
 800235e:	e7f8      	b.n	8002352 <HAL_ADC_ConfigChannel+0x116>
 8002360:	40012000 	.word	0x40012000
 8002364:	40012300 	.word	0x40012300
 8002368:	10000012 	.word	0x10000012
 800236c:	20000000 	.word	0x20000000
 8002370:	000f4240 	.word	0x000f4240

08002374 <HAL_NVIC_SetPriorityGrouping>:
 8002374:	4907      	ldr	r1, [pc, #28]	; (8002394 <HAL_NVIC_SetPriorityGrouping+0x20>)
 8002376:	68ca      	ldr	r2, [r1, #12]
 8002378:	f422 62e0 	bic.w	r2, r2, #1792	; 0x700
 800237c:	0203      	lsls	r3, r0, #8
 800237e:	0412      	lsls	r2, r2, #16
 8002380:	f403 63e0 	and.w	r3, r3, #1792	; 0x700
 8002384:	0c12      	lsrs	r2, r2, #16
 8002386:	4313      	orrs	r3, r2
 8002388:	f043 63bf 	orr.w	r3, r3, #100139008	; 0x5f80000
 800238c:	f443 3300 	orr.w	r3, r3, #131072	; 0x20000
 8002390:	60cb      	str	r3, [r1, #12]
 8002392:	4770      	bx	lr
 8002394:	e000ed00 	.word	0xe000ed00

08002398 <HAL_NVIC_SetPriority>:
 8002398:	4b16      	ldr	r3, [pc, #88]	; (80023f4 <HAL_NVIC_SetPriority+0x5c>)
 800239a:	b530      	push	{r4, r5, lr}
 800239c:	68dc      	ldr	r4, [r3, #12]
 800239e:	f3c4 2402 	ubfx	r4, r4, #8, #3
 80023a2:	f1c4 0507 	rsb	r5, r4, #7
 80023a6:	1d23      	adds	r3, r4, #4
 80023a8:	2d04      	cmp	r5, #4
 80023aa:	bf28      	it	cs
 80023ac:	2504      	movcs	r5, #4
 80023ae:	2b06      	cmp	r3, #6
 80023b0:	f04f 33ff 	mov.w	r3, #4294967295
 80023b4:	bf8c      	ite	hi
 80023b6:	3c03      	subhi	r4, #3
 80023b8:	2400      	movls	r4, #0
 80023ba:	fa03 f505 	lsl.w	r5, r3, r5
 80023be:	ea21 0105 	bic.w	r1, r1, r5
 80023c2:	40a3      	lsls	r3, r4
 80023c4:	ea22 0203 	bic.w	r2, r2, r3
 80023c8:	40a1      	lsls	r1, r4
 80023ca:	2800      	cmp	r0, #0
 80023cc:	ea41 0302 	orr.w	r3, r1, r2
 80023d0:	bfac      	ite	ge
 80023d2:	f100 4060 	addge.w	r0, r0, #3758096384	; 0xe0000000
 80023d6:	4a08      	ldrlt	r2, [pc, #32]	; (80023f8 <HAL_NVIC_SetPriority+0x60>)
 80023d8:	ea4f 1303 	mov.w	r3, r3, lsl #4
 80023dc:	bfb8      	it	lt
 80023de:	f000 000f 	andlt.w	r0, r0, #15
 80023e2:	b2db      	uxtb	r3, r3
 80023e4:	bfaa      	itet	ge
 80023e6:	f500 4061 	addge.w	r0, r0, #57600	; 0xe100
 80023ea:	5413      	strblt	r3, [r2, r0]
 80023ec:	f880 3300 	strbge.w	r3, [r0, #768]	; 0x300
 80023f0:	bd30      	pop	{r4, r5, pc}
 80023f2:	bf00      	nop
 80023f4:	e000ed00 	.word	0xe000ed00
 80023f8:	e000ed14 	.word	0xe000ed14

080023fc <HAL_SYSTICK_Config>:
 80023fc:	3801      	subs	r0, #1
 80023fe:	f1b0 7f80 	cmp.w	r0, #16777216	; 0x1000000
 8002402:	d20a      	bcs.n	800241a <HAL_SYSTICK_Config+0x1e>
 8002404:	4b06      	ldr	r3, [pc, #24]	; (8002420 <HAL_SYSTICK_Config+0x24>)
 8002406:	4a07      	ldr	r2, [pc, #28]	; (8002424 <HAL_SYSTICK_Config+0x28>)
 8002408:	6058      	str	r0, [r3, #4]
 800240a:	21f0      	movs	r1, #240	; 0xf0
 800240c:	f882 1023 	strb.w	r1, [r2, #35]	; 0x23
 8002410:	2000      	movs	r0, #0
 8002412:	2207      	movs	r2, #7
 8002414:	6098      	str	r0, [r3, #8]
 8002416:	601a      	str	r2, [r3, #0]
 8002418:	4770      	bx	lr
 800241a:	2001      	movs	r0, #1
 800241c:	4770      	bx	lr
 800241e:	bf00      	nop
 8002420:	e000e010 	.word	0xe000e010
 8002424:	e000ed00 	.word	0xe000ed00

08002428 <HAL_DAC_Init>:
 8002428:	b510      	push	{r4, lr}
 800242a:	4604      	mov	r4, r0
 800242c:	b168      	cbz	r0, 800244a <HAL_DAC_Init+0x22>
 800242e:	7903      	ldrb	r3, [r0, #4]
 8002430:	f003 02ff 	and.w	r2, r3, #255	; 0xff
 8002434:	b913      	cbnz	r3, 800243c <HAL_DAC_Init+0x14>
 8002436:	7142      	strb	r2, [r0, #5]
 8002438:	f7ff faee 	bl	8001a18 <HAL_DAC_MspInit>
 800243c:	2302      	movs	r3, #2
 800243e:	7123      	strb	r3, [r4, #4]
 8002440:	2000      	movs	r0, #0
 8002442:	2301      	movs	r3, #1
 8002444:	6120      	str	r0, [r4, #16]
 8002446:	7123      	strb	r3, [r4, #4]
 8002448:	bd10      	pop	{r4, pc}
 800244a:	2001      	movs	r0, #1
 800244c:	e7fc      	b.n	8002448 <HAL_DAC_Init+0x20>

0800244e <HAL_DAC_ConfigChannel>:
 800244e:	b530      	push	{r4, r5, lr}
 8002450:	7943      	ldrb	r3, [r0, #5]
 8002452:	2b01      	cmp	r3, #1
 8002454:	f04f 0302 	mov.w	r3, #2
 8002458:	d01a      	beq.n	8002490 <HAL_DAC_ConfigChannel+0x42>
 800245a:	6804      	ldr	r4, [r0, #0]
 800245c:	7103      	strb	r3, [r0, #4]
 800245e:	6823      	ldr	r3, [r4, #0]
 8002460:	f002 0210 	and.w	r2, r2, #16
 8002464:	f640 75fe 	movw	r5, #4094	; 0xffe
 8002468:	4095      	lsls	r5, r2
 800246a:	ea23 0505 	bic.w	r5, r3, r5
 800246e:	e9d1 3100 	ldrd	r3, r1, [r1]
 8002472:	430b      	orrs	r3, r1
 8002474:	4093      	lsls	r3, r2
 8002476:	432b      	orrs	r3, r5
 8002478:	6023      	str	r3, [r4, #0]
 800247a:	6823      	ldr	r3, [r4, #0]
 800247c:	21c0      	movs	r1, #192	; 0xc0
 800247e:	fa01 f202 	lsl.w	r2, r1, r2
 8002482:	ea23 0202 	bic.w	r2, r3, r2
 8002486:	2301      	movs	r3, #1
 8002488:	6022      	str	r2, [r4, #0]
 800248a:	7103      	strb	r3, [r0, #4]
 800248c:	2300      	movs	r3, #0
 800248e:	7143      	strb	r3, [r0, #5]
 8002490:	4618      	mov	r0, r3
 8002492:	bd30      	pop	{r4, r5, pc}

08002494 <HAL_GPIO_Init>:
 8002494:	e92d 4ff7 	stmdb	sp!, {r0, r1, r2, r4, r5, r6, r7, r8, r9, sl, fp, lr}
 8002498:	f8df 91c0 	ldr.w	r9, [pc, #448]	; 800265c <HAL_GPIO_Init+0x1c8>
 800249c:	4a6d      	ldr	r2, [pc, #436]	; (8002654 <HAL_GPIO_Init+0x1c0>)
 800249e:	2300      	movs	r3, #0
 80024a0:	680d      	ldr	r5, [r1, #0]
 80024a2:	2401      	movs	r4, #1
 80024a4:	409c      	lsls	r4, r3
 80024a6:	ea04 0c05 	and.w	ip, r4, r5
 80024aa:	43ac      	bics	r4, r5
 80024ac:	f040 80b8 	bne.w	8002620 <HAL_GPIO_Init+0x18c>
 80024b0:	684d      	ldr	r5, [r1, #4]
 80024b2:	f005 0403 	and.w	r4, r5, #3
 80024b6:	ea4f 0843 	mov.w	r8, r3, lsl #1
 80024ba:	2603      	movs	r6, #3
 80024bc:	1e67      	subs	r7, r4, #1
 80024be:	fa06 f608 	lsl.w	r6, r6, r8
 80024c2:	2f01      	cmp	r7, #1
 80024c4:	ea6f 0606 	mvn.w	r6, r6
 80024c8:	d834      	bhi.n	8002534 <HAL_GPIO_Init+0xa0>
 80024ca:	6887      	ldr	r7, [r0, #8]
 80024cc:	ea07 0e06 	and.w	lr, r7, r6
 80024d0:	68cf      	ldr	r7, [r1, #12]
 80024d2:	fa07 f708 	lsl.w	r7, r7, r8
 80024d6:	ea47 070e 	orr.w	r7, r7, lr
 80024da:	6087      	str	r7, [r0, #8]
 80024dc:	6847      	ldr	r7, [r0, #4]
 80024de:	ea27 0e0c 	bic.w	lr, r7, ip
 80024e2:	f3c5 1700 	ubfx	r7, r5, #4, #1
 80024e6:	409f      	lsls	r7, r3
 80024e8:	ea47 070e 	orr.w	r7, r7, lr
 80024ec:	6047      	str	r7, [r0, #4]
 80024ee:	68c7      	ldr	r7, [r0, #12]
 80024f0:	ea07 0e06 	and.w	lr, r7, r6
 80024f4:	688f      	ldr	r7, [r1, #8]
 80024f6:	fa07 f708 	lsl.w	r7, r7, r8
 80024fa:	ea47 070e 	orr.w	r7, r7, lr
 80024fe:	2c02      	cmp	r4, #2
 8002500:	60c7      	str	r7, [r0, #12]
 8002502:	d119      	bne.n	8002538 <HAL_GPIO_Init+0xa4>
 8002504:	ea4f 0ad3 	mov.w	sl, r3, lsr #3
 8002508:	eb00 0a8a 	add.w	sl, r0, sl, lsl #2
 800250c:	f003 0b07 	and.w	fp, r3, #7
 8002510:	f8da 7020 	ldr.w	r7, [sl, #32]
 8002514:	ea4f 0b8b 	mov.w	fp, fp, lsl #2
 8002518:	f04f 0e0f 	mov.w	lr, #15
 800251c:	fa0e fe0b 	lsl.w	lr, lr, fp
 8002520:	ea27 0e0e 	bic.w	lr, r7, lr
 8002524:	690f      	ldr	r7, [r1, #16]
 8002526:	fa07 f70b 	lsl.w	r7, r7, fp
 800252a:	ea47 070e 	orr.w	r7, r7, lr
 800252e:	f8ca 7020 	str.w	r7, [sl, #32]
 8002532:	e001      	b.n	8002538 <HAL_GPIO_Init+0xa4>
 8002534:	2c03      	cmp	r4, #3
 8002536:	d1da      	bne.n	80024ee <HAL_GPIO_Init+0x5a>
 8002538:	6807      	ldr	r7, [r0, #0]
 800253a:	fa04 f408 	lsl.w	r4, r4, r8
 800253e:	403e      	ands	r6, r7
 8002540:	4326      	orrs	r6, r4
 8002542:	00ec      	lsls	r4, r5, #3
 8002544:	6006      	str	r6, [r0, #0]
 8002546:	d56b      	bpl.n	8002620 <HAL_GPIO_Init+0x18c>
 8002548:	f04f 0a00 	mov.w	sl, #0
 800254c:	f8cd a004 	str.w	sl, [sp, #4]
 8002550:	f8d9 6044 	ldr.w	r6, [r9, #68]	; 0x44
 8002554:	4c40      	ldr	r4, [pc, #256]	; (8002658 <HAL_GPIO_Init+0x1c4>)
 8002556:	f446 4680 	orr.w	r6, r6, #16384	; 0x4000
 800255a:	f8c9 6044 	str.w	r6, [r9, #68]	; 0x44
 800255e:	f8d9 6044 	ldr.w	r6, [r9, #68]	; 0x44
 8002562:	f406 4680 	and.w	r6, r6, #16384	; 0x4000
 8002566:	9601      	str	r6, [sp, #4]
 8002568:	9e01      	ldr	r6, [sp, #4]
 800256a:	f023 0603 	bic.w	r6, r3, #3
 800256e:	f106 4680 	add.w	r6, r6, #1073741824	; 0x40000000
 8002572:	f506 369c 	add.w	r6, r6, #79872	; 0x13800
 8002576:	f003 0e03 	and.w	lr, r3, #3
 800257a:	f8d6 8008 	ldr.w	r8, [r6, #8]
 800257e:	ea4f 0e8e 	mov.w	lr, lr, lsl #2
 8002582:	270f      	movs	r7, #15
 8002584:	fa07 f70e 	lsl.w	r7, r7, lr
 8002588:	42a0      	cmp	r0, r4
 800258a:	ea28 0707 	bic.w	r7, r8, r7
 800258e:	d04e      	beq.n	800262e <HAL_GPIO_Init+0x19a>
 8002590:	f504 6480 	add.w	r4, r4, #1024	; 0x400
 8002594:	42a0      	cmp	r0, r4
 8002596:	d04c      	beq.n	8002632 <HAL_GPIO_Init+0x19e>
 8002598:	f504 6480 	add.w	r4, r4, #1024	; 0x400
 800259c:	42a0      	cmp	r0, r4
 800259e:	d04a      	beq.n	8002636 <HAL_GPIO_Init+0x1a2>
 80025a0:	f504 6480 	add.w	r4, r4, #1024	; 0x400
 80025a4:	42a0      	cmp	r0, r4
 80025a6:	d048      	beq.n	800263a <HAL_GPIO_Init+0x1a6>
 80025a8:	f504 6480 	add.w	r4, r4, #1024	; 0x400
 80025ac:	42a0      	cmp	r0, r4
 80025ae:	d046      	beq.n	800263e <HAL_GPIO_Init+0x1aa>
 80025b0:	f504 6480 	add.w	r4, r4, #1024	; 0x400
 80025b4:	42a0      	cmp	r0, r4
 80025b6:	d044      	beq.n	8002642 <HAL_GPIO_Init+0x1ae>
 80025b8:	f504 6480 	add.w	r4, r4, #1024	; 0x400
 80025bc:	42a0      	cmp	r0, r4
 80025be:	d042      	beq.n	8002646 <HAL_GPIO_Init+0x1b2>
 80025c0:	f504 6480 	add.w	r4, r4, #1024	; 0x400
 80025c4:	42a0      	cmp	r0, r4
 80025c6:	d040      	beq.n	800264a <HAL_GPIO_Init+0x1b6>
 80025c8:	f504 6480 	add.w	r4, r4, #1024	; 0x400
 80025cc:	42a0      	cmp	r0, r4
 80025ce:	d03e      	beq.n	800264e <HAL_GPIO_Init+0x1ba>
 80025d0:	f504 6480 	add.w	r4, r4, #1024	; 0x400
 80025d4:	42a0      	cmp	r0, r4
 80025d6:	bf0c      	ite	eq
 80025d8:	2409      	moveq	r4, #9
 80025da:	240a      	movne	r4, #10
 80025dc:	fa04 f40e 	lsl.w	r4, r4, lr
 80025e0:	433c      	orrs	r4, r7
 80025e2:	60b4      	str	r4, [r6, #8]
 80025e4:	6814      	ldr	r4, [r2, #0]
 80025e6:	ea6f 060c 	mvn.w	r6, ip
 80025ea:	03ef      	lsls	r7, r5, #15
 80025ec:	bf54      	ite	pl
 80025ee:	4034      	andpl	r4, r6
 80025f0:	ea4c 0404 	orrmi.w	r4, ip, r4
 80025f4:	6014      	str	r4, [r2, #0]
 80025f6:	6854      	ldr	r4, [r2, #4]
 80025f8:	03af      	lsls	r7, r5, #14
 80025fa:	bf54      	ite	pl
 80025fc:	4034      	andpl	r4, r6
 80025fe:	ea4c 0404 	orrmi.w	r4, ip, r4
 8002602:	6054      	str	r4, [r2, #4]
 8002604:	6894      	ldr	r4, [r2, #8]
 8002606:	02ef      	lsls	r7, r5, #11
 8002608:	bf54      	ite	pl
 800260a:	4034      	andpl	r4, r6
 800260c:	ea4c 0404 	orrmi.w	r4, ip, r4
 8002610:	6094      	str	r4, [r2, #8]
 8002612:	68d4      	ldr	r4, [r2, #12]
 8002614:	02ad      	lsls	r5, r5, #10
 8002616:	bf54      	ite	pl
 8002618:	4034      	andpl	r4, r6
 800261a:	ea4c 0404 	orrmi.w	r4, ip, r4
 800261e:	60d4      	str	r4, [r2, #12]
 8002620:	3301      	adds	r3, #1
 8002622:	2b10      	cmp	r3, #16
 8002624:	f47f af3c 	bne.w	80024a0 <HAL_GPIO_Init+0xc>
 8002628:	b003      	add	sp, #12
 800262a:	e8bd 8ff0 	ldmia.w	sp!, {r4, r5, r6, r7, r8, r9, sl, fp, pc}
 800262e:	4654      	mov	r4, sl
 8002630:	e7d4      	b.n	80025dc <HAL_GPIO_Init+0x148>
 8002632:	2401      	movs	r4, #1
 8002634:	e7d2      	b.n	80025dc <HAL_GPIO_Init+0x148>
 8002636:	2402      	movs	r4, #2
 8002638:	e7d0      	b.n	80025dc <HAL_GPIO_Init+0x148>
 800263a:	2403      	movs	r4, #3
 800263c:	e7ce      	b.n	80025dc <HAL_GPIO_Init+0x148>
 800263e:	2404      	movs	r4, #4
 8002640:	e7cc      	b.n	80025dc <HAL_GPIO_Init+0x148>
 8002642:	2405      	movs	r4, #5
 8002644:	e7ca      	b.n	80025dc <HAL_GPIO_Init+0x148>
 8002646:	2406      	movs	r4, #6
 8002648:	e7c8      	b.n	80025dc <HAL_GPIO_Init+0x148>
 800264a:	2407      	movs	r4, #7
 800264c:	e7c6      	b.n	80025dc <HAL_GPIO_Init+0x148>
 800264e:	2408      	movs	r4, #8
 8002650:	e7c4      	b.n	80025dc <HAL_GPIO_Init+0x148>
 8002652:	bf00      	nop
 8002654:	40013c00 	.word	0x40013c00
 8002658:	40020000 	.word	0x40020000
 800265c:	40023800 	.word	0x40023800

08002660 <HAL_GPIO_ReadPin>:
 8002660:	6903      	ldr	r3, [r0, #16]
 8002662:	4219      	tst	r1, r3
 8002664:	bf14      	ite	ne
 8002666:	2001      	movne	r0, #1
 8002668:	2000      	moveq	r0, #0
 800266a:	4770      	bx	lr

0800266c <HAL_GPIO_WritePin>:
 800266c:	b10a      	cbz	r2, 8002672 <HAL_GPIO_WritePin+0x6>
 800266e:	6181      	str	r1, [r0, #24]
 8002670:	4770      	bx	lr
 8002672:	0409      	lsls	r1, r1, #16
 8002674:	e7fb      	b.n	800266e <HAL_GPIO_WritePin+0x2>

08002676 <I2C_IsAcknowledgeFailed>:
 8002676:	6801      	ldr	r1, [r0, #0]
 8002678:	694b      	ldr	r3, [r1, #20]
 800267a:	f413 6380 	ands.w	r3, r3, #1024	; 0x400
 800267e:	f04f 0200 	mov.w	r2, #0
 8002682:	d010      	beq.n	80026a6 <I2C_IsAcknowledgeFailed+0x30>
 8002684:	f46f 6380 	mvn.w	r3, #1024	; 0x400
 8002688:	614b      	str	r3, [r1, #20]
 800268a:	2320      	movs	r3, #32
 800268c:	6302      	str	r2, [r0, #48]	; 0x30
 800268e:	f880 303d 	strb.w	r3, [r0, #61]	; 0x3d
 8002692:	f880 203e 	strb.w	r2, [r0, #62]	; 0x3e
 8002696:	6c03      	ldr	r3, [r0, #64]	; 0x40
 8002698:	f880 203c 	strb.w	r2, [r0, #60]	; 0x3c
 800269c:	f043 0304 	orr.w	r3, r3, #4
 80026a0:	6403      	str	r3, [r0, #64]	; 0x40
 80026a2:	2001      	movs	r0, #1
 80026a4:	4770      	bx	lr
 80026a6:	4618      	mov	r0, r3
 80026a8:	4770      	bx	lr

080026aa <I2C_WaitOnMasterAddressFlagUntilTimeout>:
 80026aa:	e92d 41f0 	stmdb	sp!, {r4, r5, r6, r7, r8, lr}
 80026ae:	4604      	mov	r4, r0
 80026b0:	460f      	mov	r7, r1
 80026b2:	4616      	mov	r6, r2
 80026b4:	4698      	mov	r8, r3
 80026b6:	6825      	ldr	r5, [r4, #0]
 80026b8:	6968      	ldr	r0, [r5, #20]
 80026ba:	ea27 0000 	bic.w	r0, r7, r0
 80026be:	b280      	uxth	r0, r0
 80026c0:	b1b8      	cbz	r0, 80026f2 <I2C_WaitOnMasterAddressFlagUntilTimeout+0x48>
 80026c2:	696b      	ldr	r3, [r5, #20]
 80026c4:	055a      	lsls	r2, r3, #21
 80026c6:	d516      	bpl.n	80026f6 <I2C_WaitOnMasterAddressFlagUntilTimeout+0x4c>
 80026c8:	682b      	ldr	r3, [r5, #0]
 80026ca:	f443 7300 	orr.w	r3, r3, #512	; 0x200
 80026ce:	602b      	str	r3, [r5, #0]
 80026d0:	f46f 6380 	mvn.w	r3, #1024	; 0x400
 80026d4:	616b      	str	r3, [r5, #20]
 80026d6:	2220      	movs	r2, #32
 80026d8:	2300      	movs	r3, #0
 80026da:	6323      	str	r3, [r4, #48]	; 0x30
 80026dc:	f884 203d 	strb.w	r2, [r4, #61]	; 0x3d
 80026e0:	f884 303e 	strb.w	r3, [r4, #62]	; 0x3e
 80026e4:	6c22      	ldr	r2, [r4, #64]	; 0x40
 80026e6:	f042 0204 	orr.w	r2, r2, #4
 80026ea:	6422      	str	r2, [r4, #64]	; 0x40
 80026ec:	f884 303c 	strb.w	r3, [r4, #60]	; 0x3c
 80026f0:	2001      	movs	r0, #1
 80026f2:	e8bd 81f0 	ldmia.w	sp!, {r4, r5, r6, r7, r8, pc}
 80026f6:	1c73      	adds	r3, r6, #1
 80026f8:	d0de      	beq.n	80026b8 <I2C_WaitOnMasterAddressFlagUntilTimeout+0xe>
 80026fa:	f7ff fcdf 	bl	80020bc <HAL_GetTick>
 80026fe:	eba0 0008 	sub.w	r0, r0, r8
 8002702:	42b0      	cmp	r0, r6
 8002704:	d801      	bhi.n	800270a <I2C_WaitOnMasterAddressFlagUntilTimeout+0x60>
 8002706:	2e00      	cmp	r6, #0
 8002708:	d1d5      	bne.n	80026b6 <I2C_WaitOnMasterAddressFlagUntilTimeout+0xc>
 800270a:	2300      	movs	r3, #0
 800270c:	2220      	movs	r2, #32
 800270e:	6323      	str	r3, [r4, #48]	; 0x30
 8002710:	f884 203d 	strb.w	r2, [r4, #61]	; 0x3d
 8002714:	f884 303e 	strb.w	r3, [r4, #62]	; 0x3e
 8002718:	6c22      	ldr	r2, [r4, #64]	; 0x40
 800271a:	f042 0220 	orr.w	r2, r2, #32
 800271e:	e7e4      	b.n	80026ea <I2C_WaitOnMasterAddressFlagUntilTimeout+0x40>

08002720 <I2C_WaitOnBTFFlagUntilTimeout>:
 8002720:	b570      	push	{r4, r5, r6, lr}
 8002722:	4604      	mov	r4, r0
 8002724:	460d      	mov	r5, r1
 8002726:	4616      	mov	r6, r2
 8002728:	6823      	ldr	r3, [r4, #0]
 800272a:	695b      	ldr	r3, [r3, #20]
 800272c:	075b      	lsls	r3, r3, #29
 800272e:	d501      	bpl.n	8002734 <I2C_WaitOnBTFFlagUntilTimeout+0x14>
 8002730:	2000      	movs	r0, #0
 8002732:	bd70      	pop	{r4, r5, r6, pc}
 8002734:	4620      	mov	r0, r4
 8002736:	f7ff ff9e 	bl	8002676 <I2C_IsAcknowledgeFailed>
 800273a:	b9a8      	cbnz	r0, 8002768 <I2C_WaitOnBTFFlagUntilTimeout+0x48>
 800273c:	1c6a      	adds	r2, r5, #1
 800273e:	d0f3      	beq.n	8002728 <I2C_WaitOnBTFFlagUntilTimeout+0x8>
 8002740:	f7ff fcbc 	bl	80020bc <HAL_GetTick>
 8002744:	1b80      	subs	r0, r0, r6
 8002746:	42a8      	cmp	r0, r5
 8002748:	d801      	bhi.n	800274e <I2C_WaitOnBTFFlagUntilTimeout+0x2e>
 800274a:	2d00      	cmp	r5, #0
 800274c:	d1ec      	bne.n	8002728 <I2C_WaitOnBTFFlagUntilTimeout+0x8>
 800274e:	2300      	movs	r3, #0
 8002750:	2220      	movs	r2, #32
 8002752:	6323      	str	r3, [r4, #48]	; 0x30
 8002754:	f884 203d 	strb.w	r2, [r4, #61]	; 0x3d
 8002758:	f884 303e 	strb.w	r3, [r4, #62]	; 0x3e
 800275c:	6c22      	ldr	r2, [r4, #64]	; 0x40
 800275e:	f884 303c 	strb.w	r3, [r4, #60]	; 0x3c
 8002762:	f042 0220 	orr.w	r2, r2, #32
 8002766:	6422      	str	r2, [r4, #64]	; 0x40
 8002768:	2001      	movs	r0, #1
 800276a:	e7e2      	b.n	8002732 <I2C_WaitOnBTFFlagUntilTimeout+0x12>

0800276c <I2C_WaitOnRXNEFlagUntilTimeout>:
 800276c:	b570      	push	{r4, r5, r6, lr}
 800276e:	4604      	mov	r4, r0
 8002770:	460d      	mov	r5, r1
 8002772:	4616      	mov	r6, r2
 8002774:	6821      	ldr	r1, [r4, #0]
 8002776:	694b      	ldr	r3, [r1, #20]
 8002778:	f013 0340 	ands.w	r3, r3, #64	; 0x40
 800277c:	d001      	beq.n	8002782 <I2C_WaitOnRXNEFlagUntilTimeout+0x16>
 800277e:	2000      	movs	r0, #0
 8002780:	e010      	b.n	80027a4 <I2C_WaitOnRXNEFlagUntilTimeout+0x38>
 8002782:	694a      	ldr	r2, [r1, #20]
 8002784:	06d2      	lsls	r2, r2, #27
 8002786:	d50e      	bpl.n	80027a6 <I2C_WaitOnRXNEFlagUntilTimeout+0x3a>
 8002788:	f06f 0210 	mvn.w	r2, #16
 800278c:	614a      	str	r2, [r1, #20]
 800278e:	2220      	movs	r2, #32
 8002790:	6323      	str	r3, [r4, #48]	; 0x30
 8002792:	f884 203d 	strb.w	r2, [r4, #61]	; 0x3d
 8002796:	f884 303e 	strb.w	r3, [r4, #62]	; 0x3e
 800279a:	6c22      	ldr	r2, [r4, #64]	; 0x40
 800279c:	6422      	str	r2, [r4, #64]	; 0x40
 800279e:	f884 303c 	strb.w	r3, [r4, #60]	; 0x3c
 80027a2:	2001      	movs	r0, #1
 80027a4:	bd70      	pop	{r4, r5, r6, pc}
 80027a6:	f7ff fc89 	bl	80020bc <HAL_GetTick>
 80027aa:	1b80      	subs	r0, r0, r6
 80027ac:	42a8      	cmp	r0, r5
 80027ae:	d801      	bhi.n	80027b4 <I2C_WaitOnRXNEFlagUntilTimeout+0x48>
 80027b0:	2d00      	cmp	r5, #0
 80027b2:	d1df      	bne.n	8002774 <I2C_WaitOnRXNEFlagUntilTimeout+0x8>
 80027b4:	2300      	movs	r3, #0
 80027b6:	2220      	movs	r2, #32
 80027b8:	6323      	str	r3, [r4, #48]	; 0x30
 80027ba:	f884 203d 	strb.w	r2, [r4, #61]	; 0x3d
 80027be:	f884 303e 	strb.w	r3, [r4, #62]	; 0x3e
 80027c2:	6c22      	ldr	r2, [r4, #64]	; 0x40
 80027c4:	f042 0220 	orr.w	r2, r2, #32
 80027c8:	e7e8      	b.n	800279c <I2C_WaitOnRXNEFlagUntilTimeout+0x30>

080027ca <I2C_WaitOnFlagUntilTimeout>:
 80027ca:	e92d 46f8 	stmdb	sp!, {r3, r4, r5, r6, r7, r9, sl, lr}
 80027ce:	4606      	mov	r6, r0
 80027d0:	460f      	mov	r7, r1
 80027d2:	4691      	mov	r9, r2
 80027d4:	461d      	mov	r5, r3
 80027d6:	ea4f 4a11 	mov.w	sl, r1, lsr #16
 80027da:	6833      	ldr	r3, [r6, #0]
 80027dc:	f1ba 0f01 	cmp.w	sl, #1
 80027e0:	bf0c      	ite	eq
 80027e2:	695c      	ldreq	r4, [r3, #20]
 80027e4:	699c      	ldrne	r4, [r3, #24]
 80027e6:	ea27 0404 	bic.w	r4, r7, r4
 80027ea:	b2a4      	uxth	r4, r4
 80027ec:	fab4 f484 	clz	r4, r4
 80027f0:	0964      	lsrs	r4, r4, #5
 80027f2:	45a1      	cmp	r9, r4
 80027f4:	d001      	beq.n	80027fa <I2C_WaitOnFlagUntilTimeout+0x30>
 80027f6:	2000      	movs	r0, #0
 80027f8:	e017      	b.n	800282a <I2C_WaitOnFlagUntilTimeout+0x60>
 80027fa:	1c6a      	adds	r2, r5, #1
 80027fc:	d0ee      	beq.n	80027dc <I2C_WaitOnFlagUntilTimeout+0x12>
 80027fe:	f7ff fc5d 	bl	80020bc <HAL_GetTick>
 8002802:	9b08      	ldr	r3, [sp, #32]
 8002804:	1ac0      	subs	r0, r0, r3
 8002806:	42a8      	cmp	r0, r5
 8002808:	d801      	bhi.n	800280e <I2C_WaitOnFlagUntilTimeout+0x44>
 800280a:	2d00      	cmp	r5, #0
 800280c:	d1e5      	bne.n	80027da <I2C_WaitOnFlagUntilTimeout+0x10>
 800280e:	2300      	movs	r3, #0
 8002810:	2220      	movs	r2, #32
 8002812:	6333      	str	r3, [r6, #48]	; 0x30
 8002814:	f886 203d 	strb.w	r2, [r6, #61]	; 0x3d
 8002818:	f886 303e 	strb.w	r3, [r6, #62]	; 0x3e
 800281c:	6c32      	ldr	r2, [r6, #64]	; 0x40
 800281e:	f886 303c 	strb.w	r3, [r6, #60]	; 0x3c
 8002822:	f042 0220 	orr.w	r2, r2, #32
 8002826:	6432      	str	r2, [r6, #64]	; 0x40
 8002828:	2001      	movs	r0, #1
 800282a:	e8bd 86f8 	ldmia.w	sp!, {r3, r4, r5, r6, r7, r9, sl, pc}

0800282e <I2C_WaitOnTXEFlagUntilTimeout>:
 800282e:	b570      	push	{r4, r5, r6, lr}
 8002830:	4604      	mov	r4, r0
 8002832:	460d      	mov	r5, r1
 8002834:	4616      	mov	r6, r2
 8002836:	6823      	ldr	r3, [r4, #0]
 8002838:	695b      	ldr	r3, [r3, #20]
 800283a:	061b      	lsls	r3, r3, #24
 800283c:	d501      	bpl.n	8002842 <I2C_WaitOnTXEFlagUntilTimeout+0x14>
 800283e:	2000      	movs	r0, #0
 8002840:	bd70      	pop	{r4, r5, r6, pc}
 8002842:	4620      	mov	r0, r4
 8002844:	f7ff ff17 	bl	8002676 <I2C_IsAcknowledgeFailed>
 8002848:	b9a8      	cbnz	r0, 8002876 <I2C_WaitOnTXEFlagUntilTimeout+0x48>
 800284a:	1c6a      	adds	r2, r5, #1
 800284c:	d0f3      	beq.n	8002836 <I2C_WaitOnTXEFlagUntilTimeout+0x8>
 800284e:	f7ff fc35 	bl	80020bc <HAL_GetTick>
 8002852:	1b80      	subs	r0, r0, r6
 8002854:	42a8      	cmp	r0, r5
 8002856:	d801      	bhi.n	800285c <I2C_WaitOnTXEFlagUntilTimeout+0x2e>
 8002858:	2d00      	cmp	r5, #0
 800285a:	d1ec      	bne.n	8002836 <I2C_WaitOnTXEFlagUntilTimeout+0x8>
 800285c:	2300      	movs	r3, #0
 800285e:	2220      	movs	r2, #32
 8002860:	6323      	str	r3, [r4, #48]	; 0x30
 8002862:	f884 203d 	strb.w	r2, [r4, #61]	; 0x3d
 8002866:	f884 303e 	strb.w	r3, [r4, #62]	; 0x3e
 800286a:	6c22      	ldr	r2, [r4, #64]	; 0x40
 800286c:	f884 303c 	strb.w	r3, [r4, #60]	; 0x3c
 8002870:	f042 0220 	orr.w	r2, r2, #32
 8002874:	6422      	str	r2, [r4, #64]	; 0x40
 8002876:	2001      	movs	r0, #1
 8002878:	e7e2      	b.n	8002840 <I2C_WaitOnTXEFlagUntilTimeout+0x12>
	...

0800287c <HAL_I2C_Init>:
 800287c:	b570      	push	{r4, r5, r6, lr}
 800287e:	4604      	mov	r4, r0
 8002880:	b908      	cbnz	r0, 8002886 <HAL_I2C_Init+0xa>
 8002882:	2001      	movs	r0, #1
 8002884:	bd70      	pop	{r4, r5, r6, pc}
 8002886:	f890 303d 	ldrb.w	r3, [r0, #61]	; 0x3d
 800288a:	f003 02ff 	and.w	r2, r3, #255	; 0xff
 800288e:	b91b      	cbnz	r3, 8002898 <HAL_I2C_Init+0x1c>
 8002890:	f880 203c 	strb.w	r2, [r0, #60]	; 0x3c
 8002894:	f7ff f8f2 	bl	8001a7c <HAL_I2C_MspInit>
 8002898:	2324      	movs	r3, #36	; 0x24
 800289a:	f884 303d 	strb.w	r3, [r4, #61]	; 0x3d
 800289e:	6823      	ldr	r3, [r4, #0]
 80028a0:	681a      	ldr	r2, [r3, #0]
 80028a2:	f022 0201 	bic.w	r2, r2, #1
 80028a6:	601a      	str	r2, [r3, #0]
 80028a8:	681a      	ldr	r2, [r3, #0]
 80028aa:	f442 4200 	orr.w	r2, r2, #32768	; 0x8000
 80028ae:	601a      	str	r2, [r3, #0]
 80028b0:	681a      	ldr	r2, [r3, #0]
 80028b2:	f422 4200 	bic.w	r2, r2, #32768	; 0x8000
 80028b6:	601a      	str	r2, [r3, #0]
 80028b8:	f000 ff28 	bl	800370c <HAL_RCC_GetPCLK1Freq>
 80028bc:	4a3f      	ldr	r2, [pc, #252]	; (80029bc <HAL_I2C_Init+0x140>)
 80028be:	6863      	ldr	r3, [r4, #4]
 80028c0:	4293      	cmp	r3, r2
 80028c2:	bf94      	ite	ls
 80028c4:	4a3e      	ldrls	r2, [pc, #248]	; (80029c0 <HAL_I2C_Init+0x144>)
 80028c6:	4a3f      	ldrhi	r2, [pc, #252]	; (80029c4 <HAL_I2C_Init+0x148>)
 80028c8:	4290      	cmp	r0, r2
 80028ca:	bf8c      	ite	hi
 80028cc:	2200      	movhi	r2, #0
 80028ce:	2201      	movls	r2, #1
 80028d0:	2a00      	cmp	r2, #0
 80028d2:	d1d6      	bne.n	8002882 <HAL_I2C_Init+0x6>
 80028d4:	6821      	ldr	r1, [r4, #0]
 80028d6:	4e3c      	ldr	r6, [pc, #240]	; (80029c8 <HAL_I2C_Init+0x14c>)
 80028d8:	684a      	ldr	r2, [r1, #4]
 80028da:	fbb0 f6f6 	udiv	r6, r0, r6
 80028de:	f022 023f 	bic.w	r2, r2, #63	; 0x3f
 80028e2:	4332      	orrs	r2, r6
 80028e4:	604a      	str	r2, [r1, #4]
 80028e6:	4a35      	ldr	r2, [pc, #212]	; (80029bc <HAL_I2C_Init+0x140>)
 80028e8:	6a0d      	ldr	r5, [r1, #32]
 80028ea:	4293      	cmp	r3, r2
 80028ec:	bf84      	itt	hi
 80028ee:	f44f 7296 	movhi.w	r2, #300	; 0x12c
 80028f2:	4372      	mulhi	r2, r6
 80028f4:	f025 053f 	bic.w	r5, r5, #63	; 0x3f
 80028f8:	bf91      	iteee	ls
 80028fa:	1c72      	addls	r2, r6, #1
 80028fc:	f44f 767a 	movhi.w	r6, #1000	; 0x3e8
 8002900:	fbb2 f2f6 	udivhi	r2, r2, r6
 8002904:	3201      	addhi	r2, #1
 8002906:	432a      	orrs	r2, r5
 8002908:	620a      	str	r2, [r1, #32]
 800290a:	69cd      	ldr	r5, [r1, #28]
 800290c:	1e42      	subs	r2, r0, #1
 800290e:	482b      	ldr	r0, [pc, #172]	; (80029bc <HAL_I2C_Init+0x140>)
 8002910:	f425 454f 	bic.w	r5, r5, #52992	; 0xcf00
 8002914:	4283      	cmp	r3, r0
 8002916:	f025 05ff 	bic.w	r5, r5, #255	; 0xff
 800291a:	d832      	bhi.n	8002982 <HAL_I2C_Init+0x106>
 800291c:	005b      	lsls	r3, r3, #1
 800291e:	fbb2 f3f3 	udiv	r3, r2, r3
 8002922:	f640 72fc 	movw	r2, #4092	; 0xffc
 8002926:	3301      	adds	r3, #1
 8002928:	4213      	tst	r3, r2
 800292a:	d042      	beq.n	80029b2 <HAL_I2C_Init+0x136>
 800292c:	f3c3 030b 	ubfx	r3, r3, #0, #12
 8002930:	432b      	orrs	r3, r5
 8002932:	61cb      	str	r3, [r1, #28]
 8002934:	e9d4 3007 	ldrd	r3, r0, [r4, #28]
 8002938:	680a      	ldr	r2, [r1, #0]
 800293a:	4303      	orrs	r3, r0
 800293c:	f022 02c0 	bic.w	r2, r2, #192	; 0xc0
 8002940:	4313      	orrs	r3, r2
 8002942:	600b      	str	r3, [r1, #0]
 8002944:	688a      	ldr	r2, [r1, #8]
 8002946:	e9d4 0303 	ldrd	r0, r3, [r4, #12]
 800294a:	f422 4203 	bic.w	r2, r2, #33536	; 0x8300
 800294e:	4303      	orrs	r3, r0
 8002950:	f022 02ff 	bic.w	r2, r2, #255	; 0xff
 8002954:	4313      	orrs	r3, r2
 8002956:	608b      	str	r3, [r1, #8]
 8002958:	e9d4 3005 	ldrd	r3, r0, [r4, #20]
 800295c:	68ca      	ldr	r2, [r1, #12]
 800295e:	4303      	orrs	r3, r0
 8002960:	f022 02ff 	bic.w	r2, r2, #255	; 0xff
 8002964:	4313      	orrs	r3, r2
 8002966:	60cb      	str	r3, [r1, #12]
 8002968:	680b      	ldr	r3, [r1, #0]
 800296a:	f043 0301 	orr.w	r3, r3, #1
 800296e:	600b      	str	r3, [r1, #0]
 8002970:	2000      	movs	r0, #0
 8002972:	2320      	movs	r3, #32
 8002974:	6420      	str	r0, [r4, #64]	; 0x40
 8002976:	f884 303d 	strb.w	r3, [r4, #61]	; 0x3d
 800297a:	6320      	str	r0, [r4, #48]	; 0x30
 800297c:	f884 003e 	strb.w	r0, [r4, #62]	; 0x3e
 8002980:	e780      	b.n	8002884 <HAL_I2C_Init+0x8>
 8002982:	68a0      	ldr	r0, [r4, #8]
 8002984:	b950      	cbnz	r0, 800299c <HAL_I2C_Init+0x120>
 8002986:	eb03 0343 	add.w	r3, r3, r3, lsl #1
 800298a:	fbb2 f3f3 	udiv	r3, r2, r3
 800298e:	3301      	adds	r3, #1
 8002990:	f3c3 030b 	ubfx	r3, r3, #0, #12
 8002994:	b17b      	cbz	r3, 80029b6 <HAL_I2C_Init+0x13a>
 8002996:	f443 4300 	orr.w	r3, r3, #32768	; 0x8000
 800299a:	e7c9      	b.n	8002930 <HAL_I2C_Init+0xb4>
 800299c:	2019      	movs	r0, #25
 800299e:	4343      	muls	r3, r0
 80029a0:	fbb2 f3f3 	udiv	r3, r2, r3
 80029a4:	3301      	adds	r3, #1
 80029a6:	f3c3 030b 	ubfx	r3, r3, #0, #12
 80029aa:	b123      	cbz	r3, 80029b6 <HAL_I2C_Init+0x13a>
 80029ac:	f443 4340 	orr.w	r3, r3, #49152	; 0xc000
 80029b0:	e7be      	b.n	8002930 <HAL_I2C_Init+0xb4>
 80029b2:	2304      	movs	r3, #4
 80029b4:	e7bc      	b.n	8002930 <HAL_I2C_Init+0xb4>
 80029b6:	2301      	movs	r3, #1
 80029b8:	e7ba      	b.n	8002930 <HAL_I2C_Init+0xb4>
 80029ba:	bf00      	nop
 80029bc:	000186a0 	.word	0x000186a0
 80029c0:	001e847f 	.word	0x001e847f
 80029c4:	003d08ff 	.word	0x003d08ff
 80029c8:	000f4240 	.word	0x000f4240

080029cc <HAL_I2C_Master_Transmit>:
 80029cc:	e92d 43f0 	stmdb	sp!, {r4, r5, r6, r7, r8, r9, lr}
 80029d0:	4604      	mov	r4, r0
 80029d2:	b085      	sub	sp, #20
 80029d4:	4698      	mov	r8, r3
 80029d6:	9f0c      	ldr	r7, [sp, #48]	; 0x30
 80029d8:	460d      	mov	r5, r1
 80029da:	4691      	mov	r9, r2
 80029dc:	f7ff fb6e 	bl	80020bc <HAL_GetTick>
 80029e0:	f894 303d 	ldrb.w	r3, [r4, #61]	; 0x3d
 80029e4:	2b20      	cmp	r3, #32
 80029e6:	4606      	mov	r6, r0
 80029e8:	d004      	beq.n	80029f4 <HAL_I2C_Master_Transmit+0x28>
 80029ea:	2502      	movs	r5, #2
 80029ec:	4628      	mov	r0, r5
 80029ee:	b005      	add	sp, #20
 80029f0:	e8bd 83f0 	ldmia.w	sp!, {r4, r5, r6, r7, r8, r9, pc}
 80029f4:	9000      	str	r0, [sp, #0]
 80029f6:	495d      	ldr	r1, [pc, #372]	; (8002b6c <HAL_I2C_Master_Transmit+0x1a0>)
 80029f8:	2319      	movs	r3, #25
 80029fa:	2201      	movs	r2, #1
 80029fc:	4620      	mov	r0, r4
 80029fe:	f7ff fee4 	bl	80027ca <I2C_WaitOnFlagUntilTimeout>
 8002a02:	2800      	cmp	r0, #0
 8002a04:	d1f1      	bne.n	80029ea <HAL_I2C_Master_Transmit+0x1e>
 8002a06:	f894 303c 	ldrb.w	r3, [r4, #60]	; 0x3c
 8002a0a:	2b01      	cmp	r3, #1
 8002a0c:	d0ed      	beq.n	80029ea <HAL_I2C_Master_Transmit+0x1e>
 8002a0e:	6821      	ldr	r1, [r4, #0]
 8002a10:	2301      	movs	r3, #1
 8002a12:	f884 303c 	strb.w	r3, [r4, #60]	; 0x3c
 8002a16:	680b      	ldr	r3, [r1, #0]
 8002a18:	07da      	lsls	r2, r3, #31
 8002a1a:	bf5e      	ittt	pl
 8002a1c:	680b      	ldrpl	r3, [r1, #0]
 8002a1e:	f043 0301 	orrpl.w	r3, r3, #1
 8002a22:	600b      	strpl	r3, [r1, #0]
 8002a24:	680b      	ldr	r3, [r1, #0]
 8002a26:	f423 6300 	bic.w	r3, r3, #2048	; 0x800
 8002a2a:	600b      	str	r3, [r1, #0]
 8002a2c:	2321      	movs	r3, #33	; 0x21
 8002a2e:	f884 303d 	strb.w	r3, [r4, #61]	; 0x3d
 8002a32:	2310      	movs	r3, #16
 8002a34:	f884 303e 	strb.w	r3, [r4, #62]	; 0x3e
 8002a38:	2300      	movs	r3, #0
 8002a3a:	6423      	str	r3, [r4, #64]	; 0x40
 8002a3c:	f8a4 802a 	strh.w	r8, [r4, #42]	; 0x2a
 8002a40:	8d63      	ldrh	r3, [r4, #42]	; 0x2a
 8002a42:	8523      	strh	r3, [r4, #40]	; 0x28
 8002a44:	4b4a      	ldr	r3, [pc, #296]	; (8002b70 <HAL_I2C_Master_Transmit+0x1a4>)
 8002a46:	62e3      	str	r3, [r4, #44]	; 0x2c
 8002a48:	6ae3      	ldr	r3, [r4, #44]	; 0x2c
 8002a4a:	f8c4 9024 	str.w	r9, [r4, #36]	; 0x24
 8002a4e:	2b08      	cmp	r3, #8
 8002a50:	d004      	beq.n	8002a5c <HAL_I2C_Master_Transmit+0x90>
 8002a52:	2b01      	cmp	r3, #1
 8002a54:	d002      	beq.n	8002a5c <HAL_I2C_Master_Transmit+0x90>
 8002a56:	f513 3f80 	cmn.w	r3, #65536	; 0x10000
 8002a5a:	d104      	bne.n	8002a66 <HAL_I2C_Master_Transmit+0x9a>
 8002a5c:	680b      	ldr	r3, [r1, #0]
 8002a5e:	f443 7380 	orr.w	r3, r3, #256	; 0x100
 8002a62:	600b      	str	r3, [r1, #0]
 8002a64:	e002      	b.n	8002a6c <HAL_I2C_Master_Transmit+0xa0>
 8002a66:	6b23      	ldr	r3, [r4, #48]	; 0x30
 8002a68:	2b12      	cmp	r3, #18
 8002a6a:	d0f7      	beq.n	8002a5c <HAL_I2C_Master_Transmit+0x90>
 8002a6c:	2200      	movs	r2, #0
 8002a6e:	9600      	str	r6, [sp, #0]
 8002a70:	463b      	mov	r3, r7
 8002a72:	f04f 1101 	mov.w	r1, #65537	; 0x10001
 8002a76:	4620      	mov	r0, r4
 8002a78:	f7ff fea7 	bl	80027ca <I2C_WaitOnFlagUntilTimeout>
 8002a7c:	6822      	ldr	r2, [r4, #0]
 8002a7e:	b138      	cbz	r0, 8002a90 <HAL_I2C_Master_Transmit+0xc4>
 8002a80:	6813      	ldr	r3, [r2, #0]
 8002a82:	05db      	lsls	r3, r3, #23
 8002a84:	bf44      	itt	mi
 8002a86:	f44f 7300 	movmi.w	r3, #512	; 0x200
 8002a8a:	6423      	strmi	r3, [r4, #64]	; 0x40
 8002a8c:	2501      	movs	r5, #1
 8002a8e:	e7ad      	b.n	80029ec <HAL_I2C_Master_Transmit+0x20>
 8002a90:	6923      	ldr	r3, [r4, #16]
 8002a92:	f5b3 4f80 	cmp.w	r3, #16384	; 0x4000
 8002a96:	d121      	bne.n	8002adc <HAL_I2C_Master_Transmit+0x110>
 8002a98:	f005 05fe 	and.w	r5, r5, #254	; 0xfe
 8002a9c:	6115      	str	r5, [r2, #16]
 8002a9e:	4935      	ldr	r1, [pc, #212]	; (8002b74 <HAL_I2C_Master_Transmit+0x1a8>)
 8002aa0:	4633      	mov	r3, r6
 8002aa2:	463a      	mov	r2, r7
 8002aa4:	4620      	mov	r0, r4
 8002aa6:	f7ff fe00 	bl	80026aa <I2C_WaitOnMasterAddressFlagUntilTimeout>
 8002aaa:	4605      	mov	r5, r0
 8002aac:	2800      	cmp	r0, #0
 8002aae:	d1ed      	bne.n	8002a8c <HAL_I2C_Master_Transmit+0xc0>
 8002ab0:	6823      	ldr	r3, [r4, #0]
 8002ab2:	9003      	str	r0, [sp, #12]
 8002ab4:	695a      	ldr	r2, [r3, #20]
 8002ab6:	9203      	str	r2, [sp, #12]
 8002ab8:	699b      	ldr	r3, [r3, #24]
 8002aba:	9303      	str	r3, [sp, #12]
 8002abc:	9b03      	ldr	r3, [sp, #12]
 8002abe:	8d23      	ldrh	r3, [r4, #40]	; 0x28
 8002ac0:	b9f3      	cbnz	r3, 8002b00 <HAL_I2C_Master_Transmit+0x134>
 8002ac2:	6821      	ldr	r1, [r4, #0]
 8002ac4:	680a      	ldr	r2, [r1, #0]
 8002ac6:	f442 7200 	orr.w	r2, r2, #512	; 0x200
 8002aca:	600a      	str	r2, [r1, #0]
 8002acc:	2220      	movs	r2, #32
 8002ace:	f884 203d 	strb.w	r2, [r4, #61]	; 0x3d
 8002ad2:	f884 303c 	strb.w	r3, [r4, #60]	; 0x3c
 8002ad6:	f884 303e 	strb.w	r3, [r4, #62]	; 0x3e
 8002ada:	e787      	b.n	80029ec <HAL_I2C_Master_Transmit+0x20>
 8002adc:	11eb      	asrs	r3, r5, #7
 8002ade:	f003 0306 	and.w	r3, r3, #6
 8002ae2:	f043 03f0 	orr.w	r3, r3, #240	; 0xf0
 8002ae6:	6113      	str	r3, [r2, #16]
 8002ae8:	4923      	ldr	r1, [pc, #140]	; (8002b78 <HAL_I2C_Master_Transmit+0x1ac>)
 8002aea:	4633      	mov	r3, r6
 8002aec:	463a      	mov	r2, r7
 8002aee:	4620      	mov	r0, r4
 8002af0:	f7ff fddb 	bl	80026aa <I2C_WaitOnMasterAddressFlagUntilTimeout>
 8002af4:	2800      	cmp	r0, #0
 8002af6:	d1c9      	bne.n	8002a8c <HAL_I2C_Master_Transmit+0xc0>
 8002af8:	6823      	ldr	r3, [r4, #0]
 8002afa:	b2ed      	uxtb	r5, r5
 8002afc:	611d      	str	r5, [r3, #16]
 8002afe:	e7ce      	b.n	8002a9e <HAL_I2C_Master_Transmit+0xd2>
 8002b00:	4632      	mov	r2, r6
 8002b02:	4639      	mov	r1, r7
 8002b04:	4620      	mov	r0, r4
 8002b06:	f7ff fe92 	bl	800282e <I2C_WaitOnTXEFlagUntilTimeout>
 8002b0a:	b140      	cbz	r0, 8002b1e <HAL_I2C_Master_Transmit+0x152>
 8002b0c:	6c23      	ldr	r3, [r4, #64]	; 0x40
 8002b0e:	2b04      	cmp	r3, #4
 8002b10:	d1bc      	bne.n	8002a8c <HAL_I2C_Master_Transmit+0xc0>
 8002b12:	6822      	ldr	r2, [r4, #0]
 8002b14:	6813      	ldr	r3, [r2, #0]
 8002b16:	f443 7300 	orr.w	r3, r3, #512	; 0x200
 8002b1a:	6013      	str	r3, [r2, #0]
 8002b1c:	e7b6      	b.n	8002a8c <HAL_I2C_Master_Transmit+0xc0>
 8002b1e:	6a63      	ldr	r3, [r4, #36]	; 0x24
 8002b20:	6820      	ldr	r0, [r4, #0]
 8002b22:	461a      	mov	r2, r3
 8002b24:	f812 1b01 	ldrb.w	r1, [r2], #1
 8002b28:	6101      	str	r1, [r0, #16]
 8002b2a:	6262      	str	r2, [r4, #36]	; 0x24
 8002b2c:	8d62      	ldrh	r2, [r4, #42]	; 0x2a
 8002b2e:	3a01      	subs	r2, #1
 8002b30:	b292      	uxth	r2, r2
 8002b32:	8562      	strh	r2, [r4, #42]	; 0x2a
 8002b34:	8d22      	ldrh	r2, [r4, #40]	; 0x28
 8002b36:	f8d0 c014 	ldr.w	ip, [r0, #20]
 8002b3a:	1e51      	subs	r1, r2, #1
 8002b3c:	b289      	uxth	r1, r1
 8002b3e:	f01c 0f04 	tst.w	ip, #4
 8002b42:	8521      	strh	r1, [r4, #40]	; 0x28
 8002b44:	d00a      	beq.n	8002b5c <HAL_I2C_Master_Transmit+0x190>
 8002b46:	b149      	cbz	r1, 8002b5c <HAL_I2C_Master_Transmit+0x190>
 8002b48:	7859      	ldrb	r1, [r3, #1]
 8002b4a:	6101      	str	r1, [r0, #16]
 8002b4c:	3302      	adds	r3, #2
 8002b4e:	6263      	str	r3, [r4, #36]	; 0x24
 8002b50:	8d63      	ldrh	r3, [r4, #42]	; 0x2a
 8002b52:	3b01      	subs	r3, #1
 8002b54:	b29b      	uxth	r3, r3
 8002b56:	3a02      	subs	r2, #2
 8002b58:	8563      	strh	r3, [r4, #42]	; 0x2a
 8002b5a:	8522      	strh	r2, [r4, #40]	; 0x28
 8002b5c:	4632      	mov	r2, r6
 8002b5e:	4639      	mov	r1, r7
 8002b60:	4620      	mov	r0, r4
 8002b62:	f7ff fddd 	bl	8002720 <I2C_WaitOnBTFFlagUntilTimeout>
 8002b66:	2800      	cmp	r0, #0
 8002b68:	d0a9      	beq.n	8002abe <HAL_I2C_Master_Transmit+0xf2>
 8002b6a:	e7cf      	b.n	8002b0c <HAL_I2C_Master_Transmit+0x140>
 8002b6c:	00100002 	.word	0x00100002
 8002b70:	ffff0000 	.word	0xffff0000
 8002b74:	00010002 	.word	0x00010002
 8002b78:	00010008 	.word	0x00010008

08002b7c <HAL_I2C_Master_Receive>:
 8002b7c:	e92d 43f0 	stmdb	sp!, {r4, r5, r6, r7, r8, r9, lr}
 8002b80:	4604      	mov	r4, r0
 8002b82:	b089      	sub	sp, #36	; 0x24
 8002b84:	4698      	mov	r8, r3
 8002b86:	9f10      	ldr	r7, [sp, #64]	; 0x40
 8002b88:	460e      	mov	r6, r1
 8002b8a:	4691      	mov	r9, r2
 8002b8c:	f7ff fa96 	bl	80020bc <HAL_GetTick>
 8002b90:	f894 303d 	ldrb.w	r3, [r4, #61]	; 0x3d
 8002b94:	2b20      	cmp	r3, #32
 8002b96:	4605      	mov	r5, r0
 8002b98:	d004      	beq.n	8002ba4 <HAL_I2C_Master_Receive+0x28>
 8002b9a:	2602      	movs	r6, #2
 8002b9c:	4630      	mov	r0, r6
 8002b9e:	b009      	add	sp, #36	; 0x24
 8002ba0:	e8bd 83f0 	ldmia.w	sp!, {r4, r5, r6, r7, r8, r9, pc}
 8002ba4:	9000      	str	r0, [sp, #0]
 8002ba6:	499a      	ldr	r1, [pc, #616]	; (8002e10 <HAL_I2C_Master_Receive+0x294>)
 8002ba8:	2319      	movs	r3, #25
 8002baa:	2201      	movs	r2, #1
 8002bac:	4620      	mov	r0, r4
 8002bae:	f7ff fe0c 	bl	80027ca <I2C_WaitOnFlagUntilTimeout>
 8002bb2:	2800      	cmp	r0, #0
 8002bb4:	d1f1      	bne.n	8002b9a <HAL_I2C_Master_Receive+0x1e>
 8002bb6:	f894 303c 	ldrb.w	r3, [r4, #60]	; 0x3c
 8002bba:	2b01      	cmp	r3, #1
 8002bbc:	d0ed      	beq.n	8002b9a <HAL_I2C_Master_Receive+0x1e>
 8002bbe:	6821      	ldr	r1, [r4, #0]
 8002bc0:	2301      	movs	r3, #1
 8002bc2:	f884 303c 	strb.w	r3, [r4, #60]	; 0x3c
 8002bc6:	680b      	ldr	r3, [r1, #0]
 8002bc8:	07db      	lsls	r3, r3, #31
 8002bca:	bf5e      	ittt	pl
 8002bcc:	680b      	ldrpl	r3, [r1, #0]
 8002bce:	f043 0301 	orrpl.w	r3, r3, #1
 8002bd2:	600b      	strpl	r3, [r1, #0]
 8002bd4:	680b      	ldr	r3, [r1, #0]
 8002bd6:	f423 6300 	bic.w	r3, r3, #2048	; 0x800
 8002bda:	600b      	str	r3, [r1, #0]
 8002bdc:	2322      	movs	r3, #34	; 0x22
 8002bde:	f884 303d 	strb.w	r3, [r4, #61]	; 0x3d
 8002be2:	2310      	movs	r3, #16
 8002be4:	f884 303e 	strb.w	r3, [r4, #62]	; 0x3e
 8002be8:	2300      	movs	r3, #0
 8002bea:	6423      	str	r3, [r4, #64]	; 0x40
 8002bec:	f8a4 802a 	strh.w	r8, [r4, #42]	; 0x2a
 8002bf0:	8d63      	ldrh	r3, [r4, #42]	; 0x2a
 8002bf2:	8523      	strh	r3, [r4, #40]	; 0x28
 8002bf4:	4b87      	ldr	r3, [pc, #540]	; (8002e14 <HAL_I2C_Master_Receive+0x298>)
 8002bf6:	62e3      	str	r3, [r4, #44]	; 0x2c
 8002bf8:	6ae3      	ldr	r3, [r4, #44]	; 0x2c
 8002bfa:	680a      	ldr	r2, [r1, #0]
 8002bfc:	f8c4 9024 	str.w	r9, [r4, #36]	; 0x24
 8002c00:	f442 6280 	orr.w	r2, r2, #1024	; 0x400
 8002c04:	2b08      	cmp	r3, #8
 8002c06:	600a      	str	r2, [r1, #0]
 8002c08:	d004      	beq.n	8002c14 <HAL_I2C_Master_Receive+0x98>
 8002c0a:	2b01      	cmp	r3, #1
 8002c0c:	d002      	beq.n	8002c14 <HAL_I2C_Master_Receive+0x98>
 8002c0e:	f513 3f80 	cmn.w	r3, #65536	; 0x10000
 8002c12:	d104      	bne.n	8002c1e <HAL_I2C_Master_Receive+0xa2>
 8002c14:	680b      	ldr	r3, [r1, #0]
 8002c16:	f443 7380 	orr.w	r3, r3, #256	; 0x100
 8002c1a:	600b      	str	r3, [r1, #0]
 8002c1c:	e002      	b.n	8002c24 <HAL_I2C_Master_Receive+0xa8>
 8002c1e:	6b23      	ldr	r3, [r4, #48]	; 0x30
 8002c20:	2b11      	cmp	r3, #17
 8002c22:	d0f7      	beq.n	8002c14 <HAL_I2C_Master_Receive+0x98>
 8002c24:	463b      	mov	r3, r7
 8002c26:	9500      	str	r5, [sp, #0]
 8002c28:	2200      	movs	r2, #0
 8002c2a:	f04f 1101 	mov.w	r1, #65537	; 0x10001
 8002c2e:	4620      	mov	r0, r4
 8002c30:	f7ff fdcb 	bl	80027ca <I2C_WaitOnFlagUntilTimeout>
 8002c34:	6823      	ldr	r3, [r4, #0]
 8002c36:	b138      	cbz	r0, 8002c48 <HAL_I2C_Master_Receive+0xcc>
 8002c38:	681b      	ldr	r3, [r3, #0]
 8002c3a:	05d8      	lsls	r0, r3, #23
 8002c3c:	d502      	bpl.n	8002c44 <HAL_I2C_Master_Receive+0xc8>
 8002c3e:	f44f 7300 	mov.w	r3, #512	; 0x200
 8002c42:	6423      	str	r3, [r4, #64]	; 0x40
 8002c44:	2601      	movs	r6, #1
 8002c46:	e7a9      	b.n	8002b9c <HAL_I2C_Master_Receive+0x20>
 8002c48:	6922      	ldr	r2, [r4, #16]
 8002c4a:	f5b2 4f80 	cmp.w	r2, #16384	; 0x4000
 8002c4e:	d127      	bne.n	8002ca0 <HAL_I2C_Master_Receive+0x124>
 8002c50:	f046 0601 	orr.w	r6, r6, #1
 8002c54:	b2f6      	uxtb	r6, r6
 8002c56:	611e      	str	r6, [r3, #16]
 8002c58:	496f      	ldr	r1, [pc, #444]	; (8002e18 <HAL_I2C_Master_Receive+0x29c>)
 8002c5a:	462b      	mov	r3, r5
 8002c5c:	463a      	mov	r2, r7
 8002c5e:	4620      	mov	r0, r4
 8002c60:	f7ff fd23 	bl	80026aa <I2C_WaitOnMasterAddressFlagUntilTimeout>
 8002c64:	4606      	mov	r6, r0
 8002c66:	2800      	cmp	r0, #0
 8002c68:	d1ec      	bne.n	8002c44 <HAL_I2C_Master_Receive+0xc8>
 8002c6a:	8d22      	ldrh	r2, [r4, #40]	; 0x28
 8002c6c:	6823      	ldr	r3, [r4, #0]
 8002c6e:	2a00      	cmp	r2, #0
 8002c70:	d14b      	bne.n	8002d0a <HAL_I2C_Master_Receive+0x18e>
 8002c72:	9003      	str	r0, [sp, #12]
 8002c74:	695a      	ldr	r2, [r3, #20]
 8002c76:	9203      	str	r2, [sp, #12]
 8002c78:	699a      	ldr	r2, [r3, #24]
 8002c7a:	9203      	str	r2, [sp, #12]
 8002c7c:	9a03      	ldr	r2, [sp, #12]
 8002c7e:	681a      	ldr	r2, [r3, #0]
 8002c80:	f442 7200 	orr.w	r2, r2, #512	; 0x200
 8002c84:	601a      	str	r2, [r3, #0]
 8002c86:	f8df 8198 	ldr.w	r8, [pc, #408]	; 8002e20 <HAL_I2C_Master_Receive+0x2a4>
 8002c8a:	8d23      	ldrh	r3, [r4, #40]	; 0x28
 8002c8c:	2b00      	cmp	r3, #0
 8002c8e:	d164      	bne.n	8002d5a <HAL_I2C_Master_Receive+0x1de>
 8002c90:	2220      	movs	r2, #32
 8002c92:	f884 203d 	strb.w	r2, [r4, #61]	; 0x3d
 8002c96:	f884 303c 	strb.w	r3, [r4, #60]	; 0x3c
 8002c9a:	f884 303e 	strb.w	r3, [r4, #62]	; 0x3e
 8002c9e:	e77d      	b.n	8002b9c <HAL_I2C_Master_Receive+0x20>
 8002ca0:	ea4f 18e6 	mov.w	r8, r6, asr #7
 8002ca4:	f008 0806 	and.w	r8, r8, #6
 8002ca8:	f048 02f0 	orr.w	r2, r8, #240	; 0xf0
 8002cac:	611a      	str	r2, [r3, #16]
 8002cae:	495b      	ldr	r1, [pc, #364]	; (8002e1c <HAL_I2C_Master_Receive+0x2a0>)
 8002cb0:	462b      	mov	r3, r5
 8002cb2:	463a      	mov	r2, r7
 8002cb4:	4620      	mov	r0, r4
 8002cb6:	f7ff fcf8 	bl	80026aa <I2C_WaitOnMasterAddressFlagUntilTimeout>
 8002cba:	2800      	cmp	r0, #0
 8002cbc:	d1c2      	bne.n	8002c44 <HAL_I2C_Master_Receive+0xc8>
 8002cbe:	6823      	ldr	r3, [r4, #0]
 8002cc0:	4955      	ldr	r1, [pc, #340]	; (8002e18 <HAL_I2C_Master_Receive+0x29c>)
 8002cc2:	b2f6      	uxtb	r6, r6
 8002cc4:	611e      	str	r6, [r3, #16]
 8002cc6:	463a      	mov	r2, r7
 8002cc8:	462b      	mov	r3, r5
 8002cca:	4620      	mov	r0, r4
 8002ccc:	f7ff fced 	bl	80026aa <I2C_WaitOnMasterAddressFlagUntilTimeout>
 8002cd0:	2800      	cmp	r0, #0
 8002cd2:	d1b7      	bne.n	8002c44 <HAL_I2C_Master_Receive+0xc8>
 8002cd4:	6823      	ldr	r3, [r4, #0]
 8002cd6:	9007      	str	r0, [sp, #28]
 8002cd8:	695a      	ldr	r2, [r3, #20]
 8002cda:	9207      	str	r2, [sp, #28]
 8002cdc:	699a      	ldr	r2, [r3, #24]
 8002cde:	9207      	str	r2, [sp, #28]
 8002ce0:	9a07      	ldr	r2, [sp, #28]
 8002ce2:	681a      	ldr	r2, [r3, #0]
 8002ce4:	f442 7280 	orr.w	r2, r2, #256	; 0x100
 8002ce8:	601a      	str	r2, [r3, #0]
 8002cea:	f04f 1101 	mov.w	r1, #65537	; 0x10001
 8002cee:	4602      	mov	r2, r0
 8002cf0:	9500      	str	r5, [sp, #0]
 8002cf2:	463b      	mov	r3, r7
 8002cf4:	4620      	mov	r0, r4
 8002cf6:	f7ff fd68 	bl	80027ca <I2C_WaitOnFlagUntilTimeout>
 8002cfa:	6822      	ldr	r2, [r4, #0]
 8002cfc:	b108      	cbz	r0, 8002d02 <HAL_I2C_Master_Receive+0x186>
 8002cfe:	6813      	ldr	r3, [r2, #0]
 8002d00:	e79b      	b.n	8002c3a <HAL_I2C_Master_Receive+0xbe>
 8002d02:	f048 03f1 	orr.w	r3, r8, #241	; 0xf1
 8002d06:	6113      	str	r3, [r2, #16]
 8002d08:	e7a6      	b.n	8002c58 <HAL_I2C_Master_Receive+0xdc>
 8002d0a:	2a01      	cmp	r2, #1
 8002d0c:	d10a      	bne.n	8002d24 <HAL_I2C_Master_Receive+0x1a8>
 8002d0e:	681a      	ldr	r2, [r3, #0]
 8002d10:	f422 6280 	bic.w	r2, r2, #1024	; 0x400
 8002d14:	601a      	str	r2, [r3, #0]
 8002d16:	9004      	str	r0, [sp, #16]
 8002d18:	695a      	ldr	r2, [r3, #20]
 8002d1a:	9204      	str	r2, [sp, #16]
 8002d1c:	699a      	ldr	r2, [r3, #24]
 8002d1e:	9204      	str	r2, [sp, #16]
 8002d20:	9a04      	ldr	r2, [sp, #16]
 8002d22:	e7ac      	b.n	8002c7e <HAL_I2C_Master_Receive+0x102>
 8002d24:	2a02      	cmp	r2, #2
 8002d26:	681a      	ldr	r2, [r3, #0]
 8002d28:	d10d      	bne.n	8002d46 <HAL_I2C_Master_Receive+0x1ca>
 8002d2a:	f422 6280 	bic.w	r2, r2, #1024	; 0x400
 8002d2e:	601a      	str	r2, [r3, #0]
 8002d30:	681a      	ldr	r2, [r3, #0]
 8002d32:	f442 6200 	orr.w	r2, r2, #2048	; 0x800
 8002d36:	601a      	str	r2, [r3, #0]
 8002d38:	9005      	str	r0, [sp, #20]
 8002d3a:	695a      	ldr	r2, [r3, #20]
 8002d3c:	9205      	str	r2, [sp, #20]
 8002d3e:	699b      	ldr	r3, [r3, #24]
 8002d40:	9305      	str	r3, [sp, #20]
 8002d42:	9b05      	ldr	r3, [sp, #20]
 8002d44:	e79f      	b.n	8002c86 <HAL_I2C_Master_Receive+0x10a>
 8002d46:	f442 6280 	orr.w	r2, r2, #1024	; 0x400
 8002d4a:	601a      	str	r2, [r3, #0]
 8002d4c:	9006      	str	r0, [sp, #24]
 8002d4e:	695a      	ldr	r2, [r3, #20]
 8002d50:	9206      	str	r2, [sp, #24]
 8002d52:	699b      	ldr	r3, [r3, #24]
 8002d54:	9306      	str	r3, [sp, #24]
 8002d56:	9b06      	ldr	r3, [sp, #24]
 8002d58:	e795      	b.n	8002c86 <HAL_I2C_Master_Receive+0x10a>
 8002d5a:	2b03      	cmp	r3, #3
 8002d5c:	d862      	bhi.n	8002e24 <HAL_I2C_Master_Receive+0x2a8>
 8002d5e:	2b01      	cmp	r3, #1
 8002d60:	d116      	bne.n	8002d90 <HAL_I2C_Master_Receive+0x214>
 8002d62:	462a      	mov	r2, r5
 8002d64:	4639      	mov	r1, r7
 8002d66:	4620      	mov	r0, r4
 8002d68:	f7ff fd00 	bl	800276c <I2C_WaitOnRXNEFlagUntilTimeout>
 8002d6c:	2800      	cmp	r0, #0
 8002d6e:	f47f af69 	bne.w	8002c44 <HAL_I2C_Master_Receive+0xc8>
 8002d72:	6823      	ldr	r3, [r4, #0]
 8002d74:	691a      	ldr	r2, [r3, #16]
 8002d76:	6a63      	ldr	r3, [r4, #36]	; 0x24
 8002d78:	701a      	strb	r2, [r3, #0]
 8002d7a:	6a63      	ldr	r3, [r4, #36]	; 0x24
 8002d7c:	3301      	adds	r3, #1
 8002d7e:	6263      	str	r3, [r4, #36]	; 0x24
 8002d80:	8d23      	ldrh	r3, [r4, #40]	; 0x28
 8002d82:	3b01      	subs	r3, #1
 8002d84:	8523      	strh	r3, [r4, #40]	; 0x28
 8002d86:	8d63      	ldrh	r3, [r4, #42]	; 0x2a
 8002d88:	3b01      	subs	r3, #1
 8002d8a:	b29b      	uxth	r3, r3
 8002d8c:	8563      	strh	r3, [r4, #42]	; 0x2a
 8002d8e:	e77c      	b.n	8002c8a <HAL_I2C_Master_Receive+0x10e>
 8002d90:	2b02      	cmp	r3, #2
 8002d92:	9500      	str	r5, [sp, #0]
 8002d94:	463b      	mov	r3, r7
 8002d96:	f04f 0200 	mov.w	r2, #0
 8002d9a:	4641      	mov	r1, r8
 8002d9c:	4620      	mov	r0, r4
 8002d9e:	d11a      	bne.n	8002dd6 <HAL_I2C_Master_Receive+0x25a>
 8002da0:	f7ff fd13 	bl	80027ca <I2C_WaitOnFlagUntilTimeout>
 8002da4:	2800      	cmp	r0, #0
 8002da6:	f47f af4d 	bne.w	8002c44 <HAL_I2C_Master_Receive+0xc8>
 8002daa:	6823      	ldr	r3, [r4, #0]
 8002dac:	681a      	ldr	r2, [r3, #0]
 8002dae:	f442 7200 	orr.w	r2, r2, #512	; 0x200
 8002db2:	601a      	str	r2, [r3, #0]
 8002db4:	691a      	ldr	r2, [r3, #16]
 8002db6:	6a63      	ldr	r3, [r4, #36]	; 0x24
 8002db8:	701a      	strb	r2, [r3, #0]
 8002dba:	6a62      	ldr	r2, [r4, #36]	; 0x24
 8002dbc:	1c53      	adds	r3, r2, #1
 8002dbe:	6263      	str	r3, [r4, #36]	; 0x24
 8002dc0:	8d23      	ldrh	r3, [r4, #40]	; 0x28
 8002dc2:	3b01      	subs	r3, #1
 8002dc4:	8523      	strh	r3, [r4, #40]	; 0x28
 8002dc6:	8d63      	ldrh	r3, [r4, #42]	; 0x2a
 8002dc8:	3b01      	subs	r3, #1
 8002dca:	b29b      	uxth	r3, r3
 8002dcc:	8563      	strh	r3, [r4, #42]	; 0x2a
 8002dce:	6823      	ldr	r3, [r4, #0]
 8002dd0:	691b      	ldr	r3, [r3, #16]
 8002dd2:	7053      	strb	r3, [r2, #1]
 8002dd4:	e7d1      	b.n	8002d7a <HAL_I2C_Master_Receive+0x1fe>
 8002dd6:	f7ff fcf8 	bl	80027ca <I2C_WaitOnFlagUntilTimeout>
 8002dda:	2800      	cmp	r0, #0
 8002ddc:	f47f af32 	bne.w	8002c44 <HAL_I2C_Master_Receive+0xc8>
 8002de0:	6823      	ldr	r3, [r4, #0]
 8002de2:	681a      	ldr	r2, [r3, #0]
 8002de4:	f422 6280 	bic.w	r2, r2, #1024	; 0x400
 8002de8:	601a      	str	r2, [r3, #0]
 8002dea:	691a      	ldr	r2, [r3, #16]
 8002dec:	6a63      	ldr	r3, [r4, #36]	; 0x24
 8002dee:	701a      	strb	r2, [r3, #0]
 8002df0:	6a63      	ldr	r3, [r4, #36]	; 0x24
 8002df2:	9500      	str	r5, [sp, #0]
 8002df4:	3301      	adds	r3, #1
 8002df6:	6263      	str	r3, [r4, #36]	; 0x24
 8002df8:	8d23      	ldrh	r3, [r4, #40]	; 0x28
 8002dfa:	3b01      	subs	r3, #1
 8002dfc:	8523      	strh	r3, [r4, #40]	; 0x28
 8002dfe:	8d63      	ldrh	r3, [r4, #42]	; 0x2a
 8002e00:	3b01      	subs	r3, #1
 8002e02:	b29b      	uxth	r3, r3
 8002e04:	8563      	strh	r3, [r4, #42]	; 0x2a
 8002e06:	4602      	mov	r2, r0
 8002e08:	463b      	mov	r3, r7
 8002e0a:	4641      	mov	r1, r8
 8002e0c:	4620      	mov	r0, r4
 8002e0e:	e7c7      	b.n	8002da0 <HAL_I2C_Master_Receive+0x224>
 8002e10:	00100002 	.word	0x00100002
 8002e14:	ffff0000 	.word	0xffff0000
 8002e18:	00010002 	.word	0x00010002
 8002e1c:	00010008 	.word	0x00010008
 8002e20:	00010004 	.word	0x00010004
 8002e24:	462a      	mov	r2, r5
 8002e26:	4639      	mov	r1, r7
 8002e28:	4620      	mov	r0, r4
 8002e2a:	f7ff fc9f 	bl	800276c <I2C_WaitOnRXNEFlagUntilTimeout>
 8002e2e:	2800      	cmp	r0, #0
 8002e30:	f47f af08 	bne.w	8002c44 <HAL_I2C_Master_Receive+0xc8>
 8002e34:	6823      	ldr	r3, [r4, #0]
 8002e36:	691a      	ldr	r2, [r3, #16]
 8002e38:	6a63      	ldr	r3, [r4, #36]	; 0x24
 8002e3a:	701a      	strb	r2, [r3, #0]
 8002e3c:	6a62      	ldr	r2, [r4, #36]	; 0x24
 8002e3e:	1c53      	adds	r3, r2, #1
 8002e40:	6263      	str	r3, [r4, #36]	; 0x24
 8002e42:	8d23      	ldrh	r3, [r4, #40]	; 0x28
 8002e44:	3b01      	subs	r3, #1
 8002e46:	8523      	strh	r3, [r4, #40]	; 0x28
 8002e48:	8d63      	ldrh	r3, [r4, #42]	; 0x2a
 8002e4a:	3b01      	subs	r3, #1
 8002e4c:	b29b      	uxth	r3, r3
 8002e4e:	8563      	strh	r3, [r4, #42]	; 0x2a
 8002e50:	6823      	ldr	r3, [r4, #0]
 8002e52:	6959      	ldr	r1, [r3, #20]
 8002e54:	0749      	lsls	r1, r1, #29
 8002e56:	f57f af18 	bpl.w	8002c8a <HAL_I2C_Master_Receive+0x10e>
 8002e5a:	e7b9      	b.n	8002dd0 <HAL_I2C_Master_Receive+0x254>

08002e5c <HAL_I2CEx_ConfigAnalogFilter>:
 8002e5c:	b510      	push	{r4, lr}
 8002e5e:	f890 303d 	ldrb.w	r3, [r0, #61]	; 0x3d
 8002e62:	2b20      	cmp	r3, #32
 8002e64:	b2dc      	uxtb	r4, r3
 8002e66:	d116      	bne.n	8002e96 <HAL_I2CEx_ConfigAnalogFilter+0x3a>
 8002e68:	2324      	movs	r3, #36	; 0x24
 8002e6a:	f880 303d 	strb.w	r3, [r0, #61]	; 0x3d
 8002e6e:	6803      	ldr	r3, [r0, #0]
 8002e70:	681a      	ldr	r2, [r3, #0]
 8002e72:	f022 0201 	bic.w	r2, r2, #1
 8002e76:	601a      	str	r2, [r3, #0]
 8002e78:	6a5a      	ldr	r2, [r3, #36]	; 0x24
 8002e7a:	f022 0210 	bic.w	r2, r2, #16
 8002e7e:	625a      	str	r2, [r3, #36]	; 0x24
 8002e80:	6a5a      	ldr	r2, [r3, #36]	; 0x24
 8002e82:	4311      	orrs	r1, r2
 8002e84:	6259      	str	r1, [r3, #36]	; 0x24
 8002e86:	681a      	ldr	r2, [r3, #0]
 8002e88:	f042 0201 	orr.w	r2, r2, #1
 8002e8c:	601a      	str	r2, [r3, #0]
 8002e8e:	f880 403d 	strb.w	r4, [r0, #61]	; 0x3d
 8002e92:	2000      	movs	r0, #0
 8002e94:	bd10      	pop	{r4, pc}
 8002e96:	2002      	movs	r0, #2
 8002e98:	e7fc      	b.n	8002e94 <HAL_I2CEx_ConfigAnalogFilter+0x38>

08002e9a <HAL_I2CEx_ConfigDigitalFilter>:
 8002e9a:	b530      	push	{r4, r5, lr}
 8002e9c:	f890 303d 	ldrb.w	r3, [r0, #61]	; 0x3d
 8002ea0:	2b20      	cmp	r3, #32
 8002ea2:	b2dc      	uxtb	r4, r3
 8002ea4:	d116      	bne.n	8002ed4 <HAL_I2CEx_ConfigDigitalFilter+0x3a>
 8002ea6:	6802      	ldr	r2, [r0, #0]
 8002ea8:	2324      	movs	r3, #36	; 0x24
 8002eaa:	f880 303d 	strb.w	r3, [r0, #61]	; 0x3d
 8002eae:	6813      	ldr	r3, [r2, #0]
 8002eb0:	f023 0301 	bic.w	r3, r3, #1
 8002eb4:	6013      	str	r3, [r2, #0]
 8002eb6:	6a55      	ldr	r5, [r2, #36]	; 0x24
 8002eb8:	f64f 73f0 	movw	r3, #65520	; 0xfff0
 8002ebc:	402b      	ands	r3, r5
 8002ebe:	4319      	orrs	r1, r3
 8002ec0:	b289      	uxth	r1, r1
 8002ec2:	6251      	str	r1, [r2, #36]	; 0x24
 8002ec4:	6813      	ldr	r3, [r2, #0]
 8002ec6:	f043 0301 	orr.w	r3, r3, #1
 8002eca:	6013      	str	r3, [r2, #0]
 8002ecc:	f880 403d 	strb.w	r4, [r0, #61]	; 0x3d
 8002ed0:	2000      	movs	r0, #0
 8002ed2:	bd30      	pop	{r4, r5, pc}
 8002ed4:	2002      	movs	r0, #2
 8002ed6:	e7fc      	b.n	8002ed2 <HAL_I2CEx_ConfigDigitalFilter+0x38>

08002ed8 <LTDC_SetConfig>:
 8002ed8:	e92d 43f0 	stmdb	sp!, {r4, r5, r6, r7, r8, r9, lr}
 8002edc:	01d2      	lsls	r2, r2, #7
 8002ede:	6804      	ldr	r4, [r0, #0]
 8002ee0:	684f      	ldr	r7, [r1, #4]
 8002ee2:	68e5      	ldr	r5, [r4, #12]
 8002ee4:	f8d1 c000 	ldr.w	ip, [r1]
 8002ee8:	f8d1 9018 	ldr.w	r9, [r1, #24]
 8002eec:	3284      	adds	r2, #132	; 0x84
 8002eee:	18a3      	adds	r3, r4, r2
 8002ef0:	f10c 0601 	add.w	r6, ip, #1
 8002ef4:	6858      	ldr	r0, [r3, #4]
 8002ef6:	f400 4070 	and.w	r0, r0, #61440	; 0xf000
 8002efa:	6058      	str	r0, [r3, #4]
 8002efc:	68e0      	ldr	r0, [r4, #12]
 8002efe:	f3c5 450b 	ubfx	r5, r5, #16, #12
 8002f02:	f3c0 400b 	ubfx	r0, r0, #16, #12
 8002f06:	4430      	add	r0, r6
 8002f08:	443d      	add	r5, r7
 8002f0a:	ea40 4005 	orr.w	r0, r0, r5, lsl #16
 8002f0e:	6058      	str	r0, [r3, #4]
 8002f10:	68e0      	ldr	r0, [r4, #12]
 8002f12:	68cd      	ldr	r5, [r1, #12]
 8002f14:	f3c0 000a 	ubfx	r0, r0, #0, #11
 8002f18:	4405      	add	r5, r0
 8002f1a:	6898      	ldr	r0, [r3, #8]
 8002f1c:	f400 4070 	and.w	r0, r0, #61440	; 0xf000
 8002f20:	6098      	str	r0, [r3, #8]
 8002f22:	68e6      	ldr	r6, [r4, #12]
 8002f24:	6888      	ldr	r0, [r1, #8]
 8002f26:	f3c6 060a 	ubfx	r6, r6, #0, #11
 8002f2a:	3001      	adds	r0, #1
 8002f2c:	4430      	add	r0, r6
 8002f2e:	ea40 4005 	orr.w	r0, r0, r5, lsl #16
 8002f32:	6098      	str	r0, [r3, #8]
 8002f34:	6918      	ldr	r0, [r3, #16]
 8002f36:	690e      	ldr	r6, [r1, #16]
 8002f38:	f020 0007 	bic.w	r0, r0, #7
 8002f3c:	6118      	str	r0, [r3, #16]
 8002f3e:	f04f 0e00 	mov.w	lr, #0
 8002f42:	611e      	str	r6, [r3, #16]
 8002f44:	699d      	ldr	r5, [r3, #24]
 8002f46:	f891 0032 	ldrb.w	r0, [r1, #50]	; 0x32
 8002f4a:	f891 8031 	ldrb.w	r8, [r1, #49]	; 0x31
 8002f4e:	f8c3 e018 	str.w	lr, [r3, #24]
 8002f52:	f891 5030 	ldrb.w	r5, [r1, #48]	; 0x30
 8002f56:	ea45 6509 	orr.w	r5, r5, r9, lsl #24
 8002f5a:	ea45 2508 	orr.w	r5, r5, r8, lsl #8
 8002f5e:	ea45 4500 	orr.w	r5, r5, r0, lsl #16
 8002f62:	619d      	str	r5, [r3, #24]
 8002f64:	6958      	ldr	r0, [r3, #20]
 8002f66:	f020 00ff 	bic.w	r0, r0, #255	; 0xff
 8002f6a:	6158      	str	r0, [r3, #20]
 8002f6c:	6948      	ldr	r0, [r1, #20]
 8002f6e:	6158      	str	r0, [r3, #20]
 8002f70:	69d8      	ldr	r0, [r3, #28]
 8002f72:	f420 60e0 	bic.w	r0, r0, #1792	; 0x700
 8002f76:	f020 0007 	bic.w	r0, r0, #7
 8002f7a:	61d8      	str	r0, [r3, #28]
 8002f7c:	e9d1 5007 	ldrd	r5, r0, [r1, #28]
 8002f80:	4305      	orrs	r5, r0
 8002f82:	61dd      	str	r5, [r3, #28]
 8002f84:	6a98      	ldr	r0, [r3, #40]	; 0x28
 8002f86:	6a48      	ldr	r0, [r1, #36]	; 0x24
 8002f88:	f8c3 e028 	str.w	lr, [r3, #40]	; 0x28
 8002f8c:	6298      	str	r0, [r3, #40]	; 0x28
 8002f8e:	b31e      	cbz	r6, 8002fd8 <LTDC_SetConfig+0x100>
 8002f90:	2e01      	cmp	r6, #1
 8002f92:	d023      	beq.n	8002fdc <LTDC_SetConfig+0x104>
 8002f94:	1eb0      	subs	r0, r6, #2
 8002f96:	2802      	cmp	r0, #2
 8002f98:	d922      	bls.n	8002fe0 <LTDC_SetConfig+0x108>
 8002f9a:	2e07      	cmp	r6, #7
 8002f9c:	bf0c      	ite	eq
 8002f9e:	2002      	moveq	r0, #2
 8002fa0:	2001      	movne	r0, #1
 8002fa2:	6add      	ldr	r5, [r3, #44]	; 0x2c
 8002fa4:	f005 25e0 	and.w	r5, r5, #3758153728	; 0xe000e000
 8002fa8:	62dd      	str	r5, [r3, #44]	; 0x2c
 8002faa:	6a8d      	ldr	r5, [r1, #40]	; 0x28
 8002fac:	6ac9      	ldr	r1, [r1, #44]	; 0x2c
 8002fae:	eba7 070c 	sub.w	r7, r7, ip
 8002fb2:	4345      	muls	r5, r0
 8002fb4:	4378      	muls	r0, r7
 8002fb6:	3003      	adds	r0, #3
 8002fb8:	ea40 4005 	orr.w	r0, r0, r5, lsl #16
 8002fbc:	62d8      	str	r0, [r3, #44]	; 0x2c
 8002fbe:	6b18      	ldr	r0, [r3, #48]	; 0x30
 8002fc0:	f420 60ff 	bic.w	r0, r0, #2040	; 0x7f8
 8002fc4:	f020 0007 	bic.w	r0, r0, #7
 8002fc8:	6318      	str	r0, [r3, #48]	; 0x30
 8002fca:	6319      	str	r1, [r3, #48]	; 0x30
 8002fcc:	58a3      	ldr	r3, [r4, r2]
 8002fce:	f043 0301 	orr.w	r3, r3, #1
 8002fd2:	50a3      	str	r3, [r4, r2]
 8002fd4:	e8bd 83f0 	ldmia.w	sp!, {r4, r5, r6, r7, r8, r9, pc}
 8002fd8:	2004      	movs	r0, #4
 8002fda:	e7e2      	b.n	8002fa2 <LTDC_SetConfig+0xca>
 8002fdc:	2003      	movs	r0, #3
 8002fde:	e7e0      	b.n	8002fa2 <LTDC_SetConfig+0xca>
 8002fe0:	2002      	movs	r0, #2
 8002fe2:	e7de      	b.n	8002fa2 <LTDC_SetConfig+0xca>

08002fe4 <HAL_LTDC_Init>:
 8002fe4:	b538      	push	{r3, r4, r5, lr}
 8002fe6:	4604      	mov	r4, r0
 8002fe8:	2800      	cmp	r0, #0
 8002fea:	d063      	beq.n	80030b4 <HAL_LTDC_Init+0xd0>
 8002fec:	f890 30a1 	ldrb.w	r3, [r0, #161]	; 0xa1
 8002ff0:	f003 02ff 	and.w	r2, r3, #255	; 0xff
 8002ff4:	b91b      	cbnz	r3, 8002ffe <HAL_LTDC_Init+0x1a>
 8002ff6:	f880 20a0 	strb.w	r2, [r0, #160]	; 0xa0
 8002ffa:	f7fe fd77 	bl	8001aec <HAL_LTDC_MspInit>
 8002ffe:	2302      	movs	r3, #2
 8003000:	f884 30a1 	strb.w	r3, [r4, #161]	; 0xa1
 8003004:	6823      	ldr	r3, [r4, #0]
 8003006:	699a      	ldr	r2, [r3, #24]
 8003008:	f022 4270 	bic.w	r2, r2, #4026531840	; 0xf0000000
 800300c:	619a      	str	r2, [r3, #24]
 800300e:	e9d4 2001 	ldrd	r2, r0, [r4, #4]
 8003012:	4302      	orrs	r2, r0
 8003014:	68e0      	ldr	r0, [r4, #12]
 8003016:	6999      	ldr	r1, [r3, #24]
 8003018:	4302      	orrs	r2, r0
 800301a:	6920      	ldr	r0, [r4, #16]
 800301c:	4302      	orrs	r2, r0
 800301e:	430a      	orrs	r2, r1
 8003020:	619a      	str	r2, [r3, #24]
 8003022:	689a      	ldr	r2, [r3, #8]
 8003024:	4924      	ldr	r1, [pc, #144]	; (80030b8 <HAL_LTDC_Init+0xd4>)
 8003026:	6960      	ldr	r0, [r4, #20]
 8003028:	400a      	ands	r2, r1
 800302a:	609a      	str	r2, [r3, #8]
 800302c:	689a      	ldr	r2, [r3, #8]
 800302e:	ea42 4200 	orr.w	r2, r2, r0, lsl #16
 8003032:	69a0      	ldr	r0, [r4, #24]
 8003034:	4302      	orrs	r2, r0
 8003036:	609a      	str	r2, [r3, #8]
 8003038:	68da      	ldr	r2, [r3, #12]
 800303a:	69e0      	ldr	r0, [r4, #28]
 800303c:	400a      	ands	r2, r1
 800303e:	60da      	str	r2, [r3, #12]
 8003040:	68da      	ldr	r2, [r3, #12]
 8003042:	ea42 4200 	orr.w	r2, r2, r0, lsl #16
 8003046:	6a20      	ldr	r0, [r4, #32]
 8003048:	4302      	orrs	r2, r0
 800304a:	60da      	str	r2, [r3, #12]
 800304c:	691a      	ldr	r2, [r3, #16]
 800304e:	6a60      	ldr	r0, [r4, #36]	; 0x24
 8003050:	400a      	ands	r2, r1
 8003052:	611a      	str	r2, [r3, #16]
 8003054:	691a      	ldr	r2, [r3, #16]
 8003056:	ea42 4200 	orr.w	r2, r2, r0, lsl #16
 800305a:	6aa0      	ldr	r0, [r4, #40]	; 0x28
 800305c:	4302      	orrs	r2, r0
 800305e:	611a      	str	r2, [r3, #16]
 8003060:	695a      	ldr	r2, [r3, #20]
 8003062:	4011      	ands	r1, r2
 8003064:	6159      	str	r1, [r3, #20]
 8003066:	695a      	ldr	r2, [r3, #20]
 8003068:	6ae1      	ldr	r1, [r4, #44]	; 0x2c
 800306a:	ea42 4201 	orr.w	r2, r2, r1, lsl #16
 800306e:	6b21      	ldr	r1, [r4, #48]	; 0x30
 8003070:	430a      	orrs	r2, r1
 8003072:	615a      	str	r2, [r3, #20]
 8003074:	6ad9      	ldr	r1, [r3, #44]	; 0x2c
 8003076:	f894 0036 	ldrb.w	r0, [r4, #54]	; 0x36
 800307a:	f894 5035 	ldrb.w	r5, [r4, #53]	; 0x35
 800307e:	f001 417f 	and.w	r1, r1, #4278190080	; 0xff000000
 8003082:	62d9      	str	r1, [r3, #44]	; 0x2c
 8003084:	6ad9      	ldr	r1, [r3, #44]	; 0x2c
 8003086:	f894 2034 	ldrb.w	r2, [r4, #52]	; 0x34
 800308a:	430a      	orrs	r2, r1
 800308c:	ea42 2205 	orr.w	r2, r2, r5, lsl #8
 8003090:	ea42 4200 	orr.w	r2, r2, r0, lsl #16
 8003094:	62da      	str	r2, [r3, #44]	; 0x2c
 8003096:	6b5a      	ldr	r2, [r3, #52]	; 0x34
 8003098:	f042 0206 	orr.w	r2, r2, #6
 800309c:	635a      	str	r2, [r3, #52]	; 0x34
 800309e:	699a      	ldr	r2, [r3, #24]
 80030a0:	f042 0201 	orr.w	r2, r2, #1
 80030a4:	619a      	str	r2, [r3, #24]
 80030a6:	2000      	movs	r0, #0
 80030a8:	2301      	movs	r3, #1
 80030aa:	f8c4 00a4 	str.w	r0, [r4, #164]	; 0xa4
 80030ae:	f884 30a1 	strb.w	r3, [r4, #161]	; 0xa1
 80030b2:	bd38      	pop	{r3, r4, r5, pc}
 80030b4:	2001      	movs	r0, #1
 80030b6:	e7fc      	b.n	80030b2 <HAL_LTDC_Init+0xce>
 80030b8:	f000f800 	.word	0xf000f800

080030bc <HAL_LTDC_ConfigLayer>:
 80030bc:	e92d 41f0 	stmdb	sp!, {r4, r5, r6, r7, r8, lr}
 80030c0:	f890 30a0 	ldrb.w	r3, [r0, #160]	; 0xa0
 80030c4:	2b01      	cmp	r3, #1
 80030c6:	4606      	mov	r6, r0
 80030c8:	460f      	mov	r7, r1
 80030ca:	4694      	mov	ip, r2
 80030cc:	f04f 0002 	mov.w	r0, #2
 80030d0:	d01f      	beq.n	8003112 <HAL_LTDC_ConfigLayer+0x56>
 80030d2:	f04f 0801 	mov.w	r8, #1
 80030d6:	f886 80a0 	strb.w	r8, [r6, #160]	; 0xa0
 80030da:	f886 00a1 	strb.w	r0, [r6, #161]	; 0xa1
 80030de:	2434      	movs	r4, #52	; 0x34
 80030e0:	460d      	mov	r5, r1
 80030e2:	fb04 6402 	mla	r4, r4, r2, r6
 80030e6:	cd0f      	ldmia	r5!, {r0, r1, r2, r3}
 80030e8:	3438      	adds	r4, #56	; 0x38
 80030ea:	c40f      	stmia	r4!, {r0, r1, r2, r3}
 80030ec:	cd0f      	ldmia	r5!, {r0, r1, r2, r3}
 80030ee:	c40f      	stmia	r4!, {r0, r1, r2, r3}
 80030f0:	cd0f      	ldmia	r5!, {r0, r1, r2, r3}
 80030f2:	c40f      	stmia	r4!, {r0, r1, r2, r3}
 80030f4:	682b      	ldr	r3, [r5, #0]
 80030f6:	6023      	str	r3, [r4, #0]
 80030f8:	4630      	mov	r0, r6
 80030fa:	4662      	mov	r2, ip
 80030fc:	4639      	mov	r1, r7
 80030fe:	f7ff feeb 	bl	8002ed8 <LTDC_SetConfig>
 8003102:	6833      	ldr	r3, [r6, #0]
 8003104:	2000      	movs	r0, #0
 8003106:	f8c3 8024 	str.w	r8, [r3, #36]	; 0x24
 800310a:	f886 80a1 	strb.w	r8, [r6, #161]	; 0xa1
 800310e:	f886 00a0 	strb.w	r0, [r6, #160]	; 0xa0
 8003112:	e8bd 81f0 	ldmia.w	sp!, {r4, r5, r6, r7, r8, pc}

08003116 <HAL_PCD_Init>:
 8003116:	b5f0      	push	{r4, r5, r6, r7, lr}
 8003118:	4604      	mov	r4, r0
 800311a:	b08b      	sub	sp, #44	; 0x2c
 800311c:	b360      	cbz	r0, 8003178 <HAL_PCD_Init+0x62>
 800311e:	f890 33bd 	ldrb.w	r3, [r0, #957]	; 0x3bd
 8003122:	6805      	ldr	r5, [r0, #0]
 8003124:	f003 02ff 	and.w	r2, r3, #255	; 0xff
 8003128:	b91b      	cbnz	r3, 8003132 <HAL_PCD_Init+0x1c>
 800312a:	f880 23bc 	strb.w	r2, [r0, #956]	; 0x3bc
 800312e:	f7fe fe71 	bl	8001e14 <HAL_PCD_MspInit>
 8003132:	2303      	movs	r3, #3
 8003134:	f884 33bd 	strb.w	r3, [r4, #957]	; 0x3bd
 8003138:	6beb      	ldr	r3, [r5, #60]	; 0x3c
 800313a:	4625      	mov	r5, r4
 800313c:	f413 7380 	ands.w	r3, r3, #256	; 0x100
 8003140:	f855 0b10 	ldr.w	r0, [r5], #16
 8003144:	bf08      	it	eq
 8003146:	6123      	streq	r3, [r4, #16]
 8003148:	f001 fe6e 	bl	8004e28 <USB_DisableGlobalInt>
 800314c:	cd0f      	ldmia	r5!, {r0, r1, r2, r3}
 800314e:	466e      	mov	r6, sp
 8003150:	c60f      	stmia	r6!, {r0, r1, r2, r3}
 8003152:	cd0f      	ldmia	r5!, {r0, r1, r2, r3}
 8003154:	c60f      	stmia	r6!, {r0, r1, r2, r3}
 8003156:	e895 0003 	ldmia.w	r5, {r0, r1}
 800315a:	e886 0003 	stmia.w	r6, {r0, r1}
 800315e:	4625      	mov	r5, r4
 8003160:	1d27      	adds	r7, r4, #4
 8003162:	e897 000e 	ldmia.w	r7, {r1, r2, r3}
 8003166:	f855 0b10 	ldr.w	r0, [r5], #16
 800316a:	f001 fe1d 	bl	8004da8 <USB_CoreInit>
 800316e:	4606      	mov	r6, r0
 8003170:	b120      	cbz	r0, 800317c <HAL_PCD_Init+0x66>
 8003172:	2302      	movs	r3, #2
 8003174:	f884 33bd 	strb.w	r3, [r4, #957]	; 0x3bd
 8003178:	2501      	movs	r5, #1
 800317a:	e04e      	b.n	800321a <HAL_PCD_Init+0x104>
 800317c:	4601      	mov	r1, r0
 800317e:	6820      	ldr	r0, [r4, #0]
 8003180:	f001 fe58 	bl	8004e34 <USB_SetCurrentMode>
 8003184:	4630      	mov	r0, r6
 8003186:	f8d4 c004 	ldr.w	ip, [r4, #4]
 800318a:	261c      	movs	r6, #28
 800318c:	f04f 0e01 	mov.w	lr, #1
 8003190:	4601      	mov	r1, r0
 8003192:	b2c2      	uxtb	r2, r0
 8003194:	4594      	cmp	ip, r2
 8003196:	f100 0001 	add.w	r0, r0, #1
 800319a:	d81c      	bhi.n	80031d6 <HAL_PCD_Init+0xc0>
 800319c:	2300      	movs	r3, #0
 800319e:	261c      	movs	r6, #28
 80031a0:	4619      	mov	r1, r3
 80031a2:	b2d8      	uxtb	r0, r3
 80031a4:	4584      	cmp	ip, r0
 80031a6:	f103 0301 	add.w	r3, r3, #1
 80031aa:	d822      	bhi.n	80031f2 <HAL_PCD_Init+0xdc>
 80031ac:	cd0f      	ldmia	r5!, {r0, r1, r2, r3}
 80031ae:	466e      	mov	r6, sp
 80031b0:	c60f      	stmia	r6!, {r0, r1, r2, r3}
 80031b2:	cd0f      	ldmia	r5!, {r0, r1, r2, r3}
 80031b4:	c60f      	stmia	r6!, {r0, r1, r2, r3}
 80031b6:	e895 0003 	ldmia.w	r5, {r0, r1}
 80031ba:	e886 0003 	stmia.w	r6, {r0, r1}
 80031be:	e897 000e 	ldmia.w	r7, {r1, r2, r3}
 80031c2:	6820      	ldr	r0, [r4, #0]
 80031c4:	f001 fe78 	bl	8004eb8 <USB_DevInit>
 80031c8:	2301      	movs	r3, #1
 80031ca:	4605      	mov	r5, r0
 80031cc:	b1f0      	cbz	r0, 800320c <HAL_PCD_Init+0xf6>
 80031ce:	2202      	movs	r2, #2
 80031d0:	f884 23bd 	strb.w	r2, [r4, #957]	; 0x3bd
 80031d4:	e7d0      	b.n	8003178 <HAL_PCD_Init+0x62>
 80031d6:	fb06 4302 	mla	r3, r6, r2, r4
 80031da:	e9c3 1111 	strd	r1, r1, [r3, #68]	; 0x44
 80031de:	f883 e03d 	strb.w	lr, [r3, #61]	; 0x3d
 80031e2:	f883 203c 	strb.w	r2, [r3, #60]	; 0x3c
 80031e6:	f8a3 2042 	strh.w	r2, [r3, #66]	; 0x42
 80031ea:	f883 103f 	strb.w	r1, [r3, #63]	; 0x3f
 80031ee:	6519      	str	r1, [r3, #80]	; 0x50
 80031f0:	e7cf      	b.n	8003192 <HAL_PCD_Init+0x7c>
 80031f2:	fb06 4200 	mla	r2, r6, r0, r4
 80031f6:	e9c2 1181 	strd	r1, r1, [r2, #516]	; 0x204
 80031fa:	f882 11fd 	strb.w	r1, [r2, #509]	; 0x1fd
 80031fe:	f882 01fc 	strb.w	r0, [r2, #508]	; 0x1fc
 8003202:	f882 11ff 	strb.w	r1, [r2, #511]	; 0x1ff
 8003206:	f8c2 1210 	str.w	r1, [r2, #528]	; 0x210
 800320a:	e7ca      	b.n	80031a2 <HAL_PCD_Init+0x8c>
 800320c:	f884 0038 	strb.w	r0, [r4, #56]	; 0x38
 8003210:	6820      	ldr	r0, [r4, #0]
 8003212:	f884 33bd 	strb.w	r3, [r4, #957]	; 0x3bd
 8003216:	f001 ff07 	bl	8005028 <USB_DevDisconnect>
 800321a:	4628      	mov	r0, r5
 800321c:	b00b      	add	sp, #44	; 0x2c
 800321e:	bdf0      	pop	{r4, r5, r6, r7, pc}

08003220 <HAL_RCC_OscConfig>:
 8003220:	e92d 41f3 	stmdb	sp!, {r0, r1, r4, r5, r6, r7, r8, lr}
 8003224:	4604      	mov	r4, r0
 8003226:	b340      	cbz	r0, 800327a <HAL_RCC_OscConfig+0x5a>
 8003228:	6803      	ldr	r3, [r0, #0]
 800322a:	07dd      	lsls	r5, r3, #31
 800322c:	d410      	bmi.n	8003250 <HAL_RCC_OscConfig+0x30>
 800322e:	6823      	ldr	r3, [r4, #0]
 8003230:	0798      	lsls	r0, r3, #30
 8003232:	d45e      	bmi.n	80032f2 <HAL_RCC_OscConfig+0xd2>
 8003234:	6823      	ldr	r3, [r4, #0]
 8003236:	071a      	lsls	r2, r3, #28
 8003238:	f100 80a0 	bmi.w	800337c <HAL_RCC_OscConfig+0x15c>
 800323c:	6823      	ldr	r3, [r4, #0]
 800323e:	075b      	lsls	r3, r3, #29
 8003240:	f100 80be 	bmi.w	80033c0 <HAL_RCC_OscConfig+0x1a0>
 8003244:	69a0      	ldr	r0, [r4, #24]
 8003246:	2800      	cmp	r0, #0
 8003248:	f040 811f 	bne.w	800348a <HAL_RCC_OscConfig+0x26a>
 800324c:	2000      	movs	r0, #0
 800324e:	e02b      	b.n	80032a8 <HAL_RCC_OscConfig+0x88>
 8003250:	4ba6      	ldr	r3, [pc, #664]	; (80034ec <HAL_RCC_OscConfig+0x2cc>)
 8003252:	689a      	ldr	r2, [r3, #8]
 8003254:	f002 020c 	and.w	r2, r2, #12
 8003258:	2a04      	cmp	r2, #4
 800325a:	d007      	beq.n	800326c <HAL_RCC_OscConfig+0x4c>
 800325c:	689a      	ldr	r2, [r3, #8]
 800325e:	f002 020c 	and.w	r2, r2, #12
 8003262:	2a08      	cmp	r2, #8
 8003264:	d10b      	bne.n	800327e <HAL_RCC_OscConfig+0x5e>
 8003266:	685a      	ldr	r2, [r3, #4]
 8003268:	0251      	lsls	r1, r2, #9
 800326a:	d508      	bpl.n	800327e <HAL_RCC_OscConfig+0x5e>
 800326c:	4b9f      	ldr	r3, [pc, #636]	; (80034ec <HAL_RCC_OscConfig+0x2cc>)
 800326e:	681b      	ldr	r3, [r3, #0]
 8003270:	039a      	lsls	r2, r3, #14
 8003272:	d5dc      	bpl.n	800322e <HAL_RCC_OscConfig+0xe>
 8003274:	6863      	ldr	r3, [r4, #4]
 8003276:	2b00      	cmp	r3, #0
 8003278:	d1d9      	bne.n	800322e <HAL_RCC_OscConfig+0xe>
 800327a:	2001      	movs	r0, #1
 800327c:	e014      	b.n	80032a8 <HAL_RCC_OscConfig+0x88>
 800327e:	6862      	ldr	r2, [r4, #4]
 8003280:	f5b2 3f80 	cmp.w	r2, #65536	; 0x10000
 8003284:	d113      	bne.n	80032ae <HAL_RCC_OscConfig+0x8e>
 8003286:	681a      	ldr	r2, [r3, #0]
 8003288:	f442 3280 	orr.w	r2, r2, #65536	; 0x10000
 800328c:	601a      	str	r2, [r3, #0]
 800328e:	f7fe ff15 	bl	80020bc <HAL_GetTick>
 8003292:	4e96      	ldr	r6, [pc, #600]	; (80034ec <HAL_RCC_OscConfig+0x2cc>)
 8003294:	4605      	mov	r5, r0
 8003296:	6833      	ldr	r3, [r6, #0]
 8003298:	039b      	lsls	r3, r3, #14
 800329a:	d4c8      	bmi.n	800322e <HAL_RCC_OscConfig+0xe>
 800329c:	f7fe ff0e 	bl	80020bc <HAL_GetTick>
 80032a0:	1b40      	subs	r0, r0, r5
 80032a2:	2864      	cmp	r0, #100	; 0x64
 80032a4:	d9f7      	bls.n	8003296 <HAL_RCC_OscConfig+0x76>
 80032a6:	2003      	movs	r0, #3
 80032a8:	b002      	add	sp, #8
 80032aa:	e8bd 81f0 	ldmia.w	sp!, {r4, r5, r6, r7, r8, pc}
 80032ae:	4d8f      	ldr	r5, [pc, #572]	; (80034ec <HAL_RCC_OscConfig+0x2cc>)
 80032b0:	f5b2 2fa0 	cmp.w	r2, #327680	; 0x50000
 80032b4:	682b      	ldr	r3, [r5, #0]
 80032b6:	d107      	bne.n	80032c8 <HAL_RCC_OscConfig+0xa8>
 80032b8:	f443 2380 	orr.w	r3, r3, #262144	; 0x40000
 80032bc:	602b      	str	r3, [r5, #0]
 80032be:	682b      	ldr	r3, [r5, #0]
 80032c0:	f443 3380 	orr.w	r3, r3, #65536	; 0x10000
 80032c4:	602b      	str	r3, [r5, #0]
 80032c6:	e7e2      	b.n	800328e <HAL_RCC_OscConfig+0x6e>
 80032c8:	f423 3380 	bic.w	r3, r3, #65536	; 0x10000
 80032cc:	602b      	str	r3, [r5, #0]
 80032ce:	682b      	ldr	r3, [r5, #0]
 80032d0:	f423 2380 	bic.w	r3, r3, #262144	; 0x40000
 80032d4:	602b      	str	r3, [r5, #0]
 80032d6:	2a00      	cmp	r2, #0
 80032d8:	d1d9      	bne.n	800328e <HAL_RCC_OscConfig+0x6e>
 80032da:	f7fe feef 	bl	80020bc <HAL_GetTick>
 80032de:	4606      	mov	r6, r0
 80032e0:	682b      	ldr	r3, [r5, #0]
 80032e2:	039f      	lsls	r7, r3, #14
 80032e4:	d5a3      	bpl.n	800322e <HAL_RCC_OscConfig+0xe>
 80032e6:	f7fe fee9 	bl	80020bc <HAL_GetTick>
 80032ea:	1b80      	subs	r0, r0, r6
 80032ec:	2864      	cmp	r0, #100	; 0x64
 80032ee:	d9f7      	bls.n	80032e0 <HAL_RCC_OscConfig+0xc0>
 80032f0:	e7d9      	b.n	80032a6 <HAL_RCC_OscConfig+0x86>
 80032f2:	4b7e      	ldr	r3, [pc, #504]	; (80034ec <HAL_RCC_OscConfig+0x2cc>)
 80032f4:	689a      	ldr	r2, [r3, #8]
 80032f6:	f012 0f0c 	tst.w	r2, #12
 80032fa:	d007      	beq.n	800330c <HAL_RCC_OscConfig+0xec>
 80032fc:	689a      	ldr	r2, [r3, #8]
 80032fe:	f002 020c 	and.w	r2, r2, #12
 8003302:	2a08      	cmp	r2, #8
 8003304:	d111      	bne.n	800332a <HAL_RCC_OscConfig+0x10a>
 8003306:	685b      	ldr	r3, [r3, #4]
 8003308:	025e      	lsls	r6, r3, #9
 800330a:	d40e      	bmi.n	800332a <HAL_RCC_OscConfig+0x10a>
 800330c:	4b77      	ldr	r3, [pc, #476]	; (80034ec <HAL_RCC_OscConfig+0x2cc>)
 800330e:	681a      	ldr	r2, [r3, #0]
 8003310:	0795      	lsls	r5, r2, #30
 8003312:	d502      	bpl.n	800331a <HAL_RCC_OscConfig+0xfa>
 8003314:	68e2      	ldr	r2, [r4, #12]
 8003316:	2a01      	cmp	r2, #1
 8003318:	d1af      	bne.n	800327a <HAL_RCC_OscConfig+0x5a>
 800331a:	681a      	ldr	r2, [r3, #0]
 800331c:	6921      	ldr	r1, [r4, #16]
 800331e:	f022 02f8 	bic.w	r2, r2, #248	; 0xf8
 8003322:	ea42 02c1 	orr.w	r2, r2, r1, lsl #3
 8003326:	601a      	str	r2, [r3, #0]
 8003328:	e784      	b.n	8003234 <HAL_RCC_OscConfig+0x14>
 800332a:	68e2      	ldr	r2, [r4, #12]
 800332c:	4b70      	ldr	r3, [pc, #448]	; (80034f0 <HAL_RCC_OscConfig+0x2d0>)
 800332e:	b1b2      	cbz	r2, 800335e <HAL_RCC_OscConfig+0x13e>
 8003330:	2201      	movs	r2, #1
 8003332:	601a      	str	r2, [r3, #0]
 8003334:	f7fe fec2 	bl	80020bc <HAL_GetTick>
 8003338:	4d6c      	ldr	r5, [pc, #432]	; (80034ec <HAL_RCC_OscConfig+0x2cc>)
 800333a:	4606      	mov	r6, r0
 800333c:	682b      	ldr	r3, [r5, #0]
 800333e:	0798      	lsls	r0, r3, #30
 8003340:	d507      	bpl.n	8003352 <HAL_RCC_OscConfig+0x132>
 8003342:	682b      	ldr	r3, [r5, #0]
 8003344:	6922      	ldr	r2, [r4, #16]
 8003346:	f023 03f8 	bic.w	r3, r3, #248	; 0xf8
 800334a:	ea43 03c2 	orr.w	r3, r3, r2, lsl #3
 800334e:	602b      	str	r3, [r5, #0]
 8003350:	e770      	b.n	8003234 <HAL_RCC_OscConfig+0x14>
 8003352:	f7fe feb3 	bl	80020bc <HAL_GetTick>
 8003356:	1b80      	subs	r0, r0, r6
 8003358:	2802      	cmp	r0, #2
 800335a:	d9ef      	bls.n	800333c <HAL_RCC_OscConfig+0x11c>
 800335c:	e7a3      	b.n	80032a6 <HAL_RCC_OscConfig+0x86>
 800335e:	601a      	str	r2, [r3, #0]
 8003360:	f7fe feac 	bl	80020bc <HAL_GetTick>
 8003364:	4e61      	ldr	r6, [pc, #388]	; (80034ec <HAL_RCC_OscConfig+0x2cc>)
 8003366:	4605      	mov	r5, r0
 8003368:	6833      	ldr	r3, [r6, #0]
 800336a:	0799      	lsls	r1, r3, #30
 800336c:	f57f af62 	bpl.w	8003234 <HAL_RCC_OscConfig+0x14>
 8003370:	f7fe fea4 	bl	80020bc <HAL_GetTick>
 8003374:	1b40      	subs	r0, r0, r5
 8003376:	2802      	cmp	r0, #2
 8003378:	d9f6      	bls.n	8003368 <HAL_RCC_OscConfig+0x148>
 800337a:	e794      	b.n	80032a6 <HAL_RCC_OscConfig+0x86>
 800337c:	6962      	ldr	r2, [r4, #20]
 800337e:	4b5d      	ldr	r3, [pc, #372]	; (80034f4 <HAL_RCC_OscConfig+0x2d4>)
 8003380:	b17a      	cbz	r2, 80033a2 <HAL_RCC_OscConfig+0x182>
 8003382:	2201      	movs	r2, #1
 8003384:	601a      	str	r2, [r3, #0]
 8003386:	f7fe fe99 	bl	80020bc <HAL_GetTick>
 800338a:	4e58      	ldr	r6, [pc, #352]	; (80034ec <HAL_RCC_OscConfig+0x2cc>)
 800338c:	4605      	mov	r5, r0
 800338e:	6f73      	ldr	r3, [r6, #116]	; 0x74
 8003390:	079f      	lsls	r7, r3, #30
 8003392:	f53f af53 	bmi.w	800323c <HAL_RCC_OscConfig+0x1c>
 8003396:	f7fe fe91 	bl	80020bc <HAL_GetTick>
 800339a:	1b40      	subs	r0, r0, r5
 800339c:	2802      	cmp	r0, #2
 800339e:	d9f6      	bls.n	800338e <HAL_RCC_OscConfig+0x16e>
 80033a0:	e781      	b.n	80032a6 <HAL_RCC_OscConfig+0x86>
 80033a2:	601a      	str	r2, [r3, #0]
 80033a4:	f7fe fe8a 	bl	80020bc <HAL_GetTick>
 80033a8:	4e50      	ldr	r6, [pc, #320]	; (80034ec <HAL_RCC_OscConfig+0x2cc>)
 80033aa:	4605      	mov	r5, r0
 80033ac:	6f73      	ldr	r3, [r6, #116]	; 0x74
 80033ae:	0798      	lsls	r0, r3, #30
 80033b0:	f57f af44 	bpl.w	800323c <HAL_RCC_OscConfig+0x1c>
 80033b4:	f7fe fe82 	bl	80020bc <HAL_GetTick>
 80033b8:	1b40      	subs	r0, r0, r5
 80033ba:	2802      	cmp	r0, #2
 80033bc:	d9f6      	bls.n	80033ac <HAL_RCC_OscConfig+0x18c>
 80033be:	e772      	b.n	80032a6 <HAL_RCC_OscConfig+0x86>
 80033c0:	4b4a      	ldr	r3, [pc, #296]	; (80034ec <HAL_RCC_OscConfig+0x2cc>)
 80033c2:	6c1a      	ldr	r2, [r3, #64]	; 0x40
 80033c4:	f012 5280 	ands.w	r2, r2, #268435456	; 0x10000000
 80033c8:	d128      	bne.n	800341c <HAL_RCC_OscConfig+0x1fc>
 80033ca:	9201      	str	r2, [sp, #4]
 80033cc:	6c1a      	ldr	r2, [r3, #64]	; 0x40
 80033ce:	f042 5280 	orr.w	r2, r2, #268435456	; 0x10000000
 80033d2:	641a      	str	r2, [r3, #64]	; 0x40
 80033d4:	6c1b      	ldr	r3, [r3, #64]	; 0x40
 80033d6:	f003 5380 	and.w	r3, r3, #268435456	; 0x10000000
 80033da:	9301      	str	r3, [sp, #4]
 80033dc:	9b01      	ldr	r3, [sp, #4]
 80033de:	2701      	movs	r7, #1
 80033e0:	4d45      	ldr	r5, [pc, #276]	; (80034f8 <HAL_RCC_OscConfig+0x2d8>)
 80033e2:	682b      	ldr	r3, [r5, #0]
 80033e4:	05d9      	lsls	r1, r3, #23
 80033e6:	d51b      	bpl.n	8003420 <HAL_RCC_OscConfig+0x200>
 80033e8:	68a3      	ldr	r3, [r4, #8]
 80033ea:	4d40      	ldr	r5, [pc, #256]	; (80034ec <HAL_RCC_OscConfig+0x2cc>)
 80033ec:	2b01      	cmp	r3, #1
 80033ee:	d127      	bne.n	8003440 <HAL_RCC_OscConfig+0x220>
 80033f0:	6f2b      	ldr	r3, [r5, #112]	; 0x70
 80033f2:	f043 0301 	orr.w	r3, r3, #1
 80033f6:	672b      	str	r3, [r5, #112]	; 0x70
 80033f8:	f7fe fe60 	bl	80020bc <HAL_GetTick>
 80033fc:	4e3b      	ldr	r6, [pc, #236]	; (80034ec <HAL_RCC_OscConfig+0x2cc>)
 80033fe:	4605      	mov	r5, r0
 8003400:	f241 3888 	movw	r8, #5000	; 0x1388
 8003404:	6f33      	ldr	r3, [r6, #112]	; 0x70
 8003406:	079b      	lsls	r3, r3, #30
 8003408:	d539      	bpl.n	800347e <HAL_RCC_OscConfig+0x25e>
 800340a:	2f00      	cmp	r7, #0
 800340c:	f43f af1a 	beq.w	8003244 <HAL_RCC_OscConfig+0x24>
 8003410:	4a36      	ldr	r2, [pc, #216]	; (80034ec <HAL_RCC_OscConfig+0x2cc>)
 8003412:	6c13      	ldr	r3, [r2, #64]	; 0x40
 8003414:	f023 5380 	bic.w	r3, r3, #268435456	; 0x10000000
 8003418:	6413      	str	r3, [r2, #64]	; 0x40
 800341a:	e713      	b.n	8003244 <HAL_RCC_OscConfig+0x24>
 800341c:	2700      	movs	r7, #0
 800341e:	e7df      	b.n	80033e0 <HAL_RCC_OscConfig+0x1c0>
 8003420:	682b      	ldr	r3, [r5, #0]
 8003422:	f443 7380 	orr.w	r3, r3, #256	; 0x100
 8003426:	602b      	str	r3, [r5, #0]
 8003428:	f7fe fe48 	bl	80020bc <HAL_GetTick>
 800342c:	4606      	mov	r6, r0
 800342e:	682b      	ldr	r3, [r5, #0]
 8003430:	05da      	lsls	r2, r3, #23
 8003432:	d4d9      	bmi.n	80033e8 <HAL_RCC_OscConfig+0x1c8>
 8003434:	f7fe fe42 	bl	80020bc <HAL_GetTick>
 8003438:	1b80      	subs	r0, r0, r6
 800343a:	2802      	cmp	r0, #2
 800343c:	d9f7      	bls.n	800342e <HAL_RCC_OscConfig+0x20e>
 800343e:	e732      	b.n	80032a6 <HAL_RCC_OscConfig+0x86>
 8003440:	2b05      	cmp	r3, #5
 8003442:	d104      	bne.n	800344e <HAL_RCC_OscConfig+0x22e>
 8003444:	6f2b      	ldr	r3, [r5, #112]	; 0x70
 8003446:	f043 0304 	orr.w	r3, r3, #4
 800344a:	672b      	str	r3, [r5, #112]	; 0x70
 800344c:	e7d0      	b.n	80033f0 <HAL_RCC_OscConfig+0x1d0>
 800344e:	6f2a      	ldr	r2, [r5, #112]	; 0x70
 8003450:	f022 0201 	bic.w	r2, r2, #1
 8003454:	672a      	str	r2, [r5, #112]	; 0x70
 8003456:	6f2a      	ldr	r2, [r5, #112]	; 0x70
 8003458:	f022 0204 	bic.w	r2, r2, #4
 800345c:	672a      	str	r2, [r5, #112]	; 0x70
 800345e:	2b00      	cmp	r3, #0
 8003460:	d1ca      	bne.n	80033f8 <HAL_RCC_OscConfig+0x1d8>
 8003462:	f7fe fe2b 	bl	80020bc <HAL_GetTick>
 8003466:	f241 3888 	movw	r8, #5000	; 0x1388
 800346a:	4606      	mov	r6, r0
 800346c:	6f2b      	ldr	r3, [r5, #112]	; 0x70
 800346e:	0798      	lsls	r0, r3, #30
 8003470:	d5cb      	bpl.n	800340a <HAL_RCC_OscConfig+0x1ea>
 8003472:	f7fe fe23 	bl	80020bc <HAL_GetTick>
 8003476:	1b80      	subs	r0, r0, r6
 8003478:	4540      	cmp	r0, r8
 800347a:	d9f7      	bls.n	800346c <HAL_RCC_OscConfig+0x24c>
 800347c:	e713      	b.n	80032a6 <HAL_RCC_OscConfig+0x86>
 800347e:	f7fe fe1d 	bl	80020bc <HAL_GetTick>
 8003482:	1b40      	subs	r0, r0, r5
 8003484:	4540      	cmp	r0, r8
 8003486:	d9bd      	bls.n	8003404 <HAL_RCC_OscConfig+0x1e4>
 8003488:	e70d      	b.n	80032a6 <HAL_RCC_OscConfig+0x86>
 800348a:	4d18      	ldr	r5, [pc, #96]	; (80034ec <HAL_RCC_OscConfig+0x2cc>)
 800348c:	68ab      	ldr	r3, [r5, #8]
 800348e:	f003 030c 	and.w	r3, r3, #12
 8003492:	2b08      	cmp	r3, #8
 8003494:	d047      	beq.n	8003526 <HAL_RCC_OscConfig+0x306>
 8003496:	4e19      	ldr	r6, [pc, #100]	; (80034fc <HAL_RCC_OscConfig+0x2dc>)
 8003498:	2300      	movs	r3, #0
 800349a:	2802      	cmp	r0, #2
 800349c:	6033      	str	r3, [r6, #0]
 800349e:	d135      	bne.n	800350c <HAL_RCC_OscConfig+0x2ec>
 80034a0:	f7fe fe0c 	bl	80020bc <HAL_GetTick>
 80034a4:	4607      	mov	r7, r0
 80034a6:	682b      	ldr	r3, [r5, #0]
 80034a8:	0199      	lsls	r1, r3, #6
 80034aa:	d429      	bmi.n	8003500 <HAL_RCC_OscConfig+0x2e0>
 80034ac:	e9d4 3207 	ldrd	r3, r2, [r4, #28]
 80034b0:	4313      	orrs	r3, r2
 80034b2:	6a62      	ldr	r2, [r4, #36]	; 0x24
 80034b4:	ea43 1382 	orr.w	r3, r3, r2, lsl #6
 80034b8:	6ae2      	ldr	r2, [r4, #44]	; 0x2c
 80034ba:	ea43 6302 	orr.w	r3, r3, r2, lsl #24
 80034be:	6aa2      	ldr	r2, [r4, #40]	; 0x28
 80034c0:	0852      	lsrs	r2, r2, #1
 80034c2:	3a01      	subs	r2, #1
 80034c4:	ea43 4302 	orr.w	r3, r3, r2, lsl #16
 80034c8:	606b      	str	r3, [r5, #4]
 80034ca:	2301      	movs	r3, #1
 80034cc:	6033      	str	r3, [r6, #0]
 80034ce:	f7fe fdf5 	bl	80020bc <HAL_GetTick>
 80034d2:	4d06      	ldr	r5, [pc, #24]	; (80034ec <HAL_RCC_OscConfig+0x2cc>)
 80034d4:	4604      	mov	r4, r0
 80034d6:	682b      	ldr	r3, [r5, #0]
 80034d8:	019a      	lsls	r2, r3, #6
 80034da:	f53f aeb7 	bmi.w	800324c <HAL_RCC_OscConfig+0x2c>
 80034de:	f7fe fded 	bl	80020bc <HAL_GetTick>
 80034e2:	1b00      	subs	r0, r0, r4
 80034e4:	2802      	cmp	r0, #2
 80034e6:	d9f6      	bls.n	80034d6 <HAL_RCC_OscConfig+0x2b6>
 80034e8:	e6dd      	b.n	80032a6 <HAL_RCC_OscConfig+0x86>
 80034ea:	bf00      	nop
 80034ec:	40023800 	.word	0x40023800
 80034f0:	42470000 	.word	0x42470000
 80034f4:	42470e80 	.word	0x42470e80
 80034f8:	40007000 	.word	0x40007000
 80034fc:	42470060 	.word	0x42470060
 8003500:	f7fe fddc 	bl	80020bc <HAL_GetTick>
 8003504:	1bc0      	subs	r0, r0, r7
 8003506:	2802      	cmp	r0, #2
 8003508:	d9cd      	bls.n	80034a6 <HAL_RCC_OscConfig+0x286>
 800350a:	e6cc      	b.n	80032a6 <HAL_RCC_OscConfig+0x86>
 800350c:	f7fe fdd6 	bl	80020bc <HAL_GetTick>
 8003510:	4604      	mov	r4, r0
 8003512:	682b      	ldr	r3, [r5, #0]
 8003514:	019b      	lsls	r3, r3, #6
 8003516:	f57f ae99 	bpl.w	800324c <HAL_RCC_OscConfig+0x2c>
 800351a:	f7fe fdcf 	bl	80020bc <HAL_GetTick>
 800351e:	1b00      	subs	r0, r0, r4
 8003520:	2802      	cmp	r0, #2
 8003522:	d9f6      	bls.n	8003512 <HAL_RCC_OscConfig+0x2f2>
 8003524:	e6bf      	b.n	80032a6 <HAL_RCC_OscConfig+0x86>
 8003526:	2801      	cmp	r0, #1
 8003528:	f43f aebe 	beq.w	80032a8 <HAL_RCC_OscConfig+0x88>
 800352c:	686b      	ldr	r3, [r5, #4]
 800352e:	69e2      	ldr	r2, [r4, #28]
 8003530:	f403 0180 	and.w	r1, r3, #4194304	; 0x400000
 8003534:	4291      	cmp	r1, r2
 8003536:	f47f aea0 	bne.w	800327a <HAL_RCC_OscConfig+0x5a>
 800353a:	6a21      	ldr	r1, [r4, #32]
 800353c:	f003 023f 	and.w	r2, r3, #63	; 0x3f
 8003540:	428a      	cmp	r2, r1
 8003542:	f47f ae9a 	bne.w	800327a <HAL_RCC_OscConfig+0x5a>
 8003546:	6a61      	ldr	r1, [r4, #36]	; 0x24
 8003548:	f647 72c0 	movw	r2, #32704	; 0x7fc0
 800354c:	401a      	ands	r2, r3
 800354e:	ebb2 1f81 	cmp.w	r2, r1, lsl #6
 8003552:	f47f ae92 	bne.w	800327a <HAL_RCC_OscConfig+0x5a>
 8003556:	6aa2      	ldr	r2, [r4, #40]	; 0x28
 8003558:	0852      	lsrs	r2, r2, #1
 800355a:	f403 3140 	and.w	r1, r3, #196608	; 0x30000
 800355e:	3a01      	subs	r2, #1
 8003560:	ebb1 4f02 	cmp.w	r1, r2, lsl #16
 8003564:	f47f ae89 	bne.w	800327a <HAL_RCC_OscConfig+0x5a>
 8003568:	6ae2      	ldr	r2, [r4, #44]	; 0x2c
 800356a:	f003 6370 	and.w	r3, r3, #251658240	; 0xf000000
 800356e:	ebb3 6f02 	cmp.w	r3, r2, lsl #24
 8003572:	f43f ae6b 	beq.w	800324c <HAL_RCC_OscConfig+0x2c>
 8003576:	e680      	b.n	800327a <HAL_RCC_OscConfig+0x5a>

08003578 <HAL_RCC_GetSysClockFreq>:
 8003578:	4913      	ldr	r1, [pc, #76]	; (80035c8 <HAL_RCC_GetSysClockFreq+0x50>)
 800357a:	b508      	push	{r3, lr}
 800357c:	688b      	ldr	r3, [r1, #8]
 800357e:	f003 030c 	and.w	r3, r3, #12
 8003582:	2b04      	cmp	r3, #4
 8003584:	d01c      	beq.n	80035c0 <HAL_RCC_GetSysClockFreq+0x48>
 8003586:	2b08      	cmp	r3, #8
 8003588:	d11c      	bne.n	80035c4 <HAL_RCC_GetSysClockFreq+0x4c>
 800358a:	684a      	ldr	r2, [r1, #4]
 800358c:	684b      	ldr	r3, [r1, #4]
 800358e:	6849      	ldr	r1, [r1, #4]
 8003590:	f413 0380 	ands.w	r3, r3, #4194304	; 0x400000
 8003594:	bf14      	ite	ne
 8003596:	480d      	ldrne	r0, [pc, #52]	; (80035cc <HAL_RCC_GetSysClockFreq+0x54>)
 8003598:	480d      	ldreq	r0, [pc, #52]	; (80035d0 <HAL_RCC_GetSysClockFreq+0x58>)
 800359a:	f3c1 1188 	ubfx	r1, r1, #6, #9
 800359e:	bf18      	it	ne
 80035a0:	2300      	movne	r3, #0
 80035a2:	f002 023f 	and.w	r2, r2, #63	; 0x3f
 80035a6:	fba1 0100 	umull	r0, r1, r1, r0
 80035aa:	f7fd f845 	bl	8000638 <__aeabi_uldivmod>
 80035ae:	4b06      	ldr	r3, [pc, #24]	; (80035c8 <HAL_RCC_GetSysClockFreq+0x50>)
 80035b0:	685b      	ldr	r3, [r3, #4]
 80035b2:	f3c3 4301 	ubfx	r3, r3, #16, #2
 80035b6:	3301      	adds	r3, #1
 80035b8:	005b      	lsls	r3, r3, #1
 80035ba:	fbb0 f0f3 	udiv	r0, r0, r3
 80035be:	bd08      	pop	{r3, pc}
 80035c0:	4802      	ldr	r0, [pc, #8]	; (80035cc <HAL_RCC_GetSysClockFreq+0x54>)
 80035c2:	e7fc      	b.n	80035be <HAL_RCC_GetSysClockFreq+0x46>
 80035c4:	4802      	ldr	r0, [pc, #8]	; (80035d0 <HAL_RCC_GetSysClockFreq+0x58>)
 80035c6:	e7fa      	b.n	80035be <HAL_RCC_GetSysClockFreq+0x46>
 80035c8:	40023800 	.word	0x40023800
 80035cc:	00b71b00 	.word	0x00b71b00
 80035d0:	00f42400 	.word	0x00f42400

080035d4 <HAL_RCC_ClockConfig>:
 80035d4:	e92d 41f0 	stmdb	sp!, {r4, r5, r6, r7, r8, lr}
 80035d8:	460d      	mov	r5, r1
 80035da:	4604      	mov	r4, r0
 80035dc:	b910      	cbnz	r0, 80035e4 <HAL_RCC_ClockConfig+0x10>
 80035de:	2001      	movs	r0, #1
 80035e0:	e8bd 81f0 	ldmia.w	sp!, {r4, r5, r6, r7, r8, pc}
 80035e4:	4b44      	ldr	r3, [pc, #272]	; (80036f8 <HAL_RCC_ClockConfig+0x124>)
 80035e6:	681a      	ldr	r2, [r3, #0]
 80035e8:	f002 020f 	and.w	r2, r2, #15
 80035ec:	428a      	cmp	r2, r1
 80035ee:	d328      	bcc.n	8003642 <HAL_RCC_ClockConfig+0x6e>
 80035f0:	6822      	ldr	r2, [r4, #0]
 80035f2:	0797      	lsls	r7, r2, #30
 80035f4:	d42d      	bmi.n	8003652 <HAL_RCC_ClockConfig+0x7e>
 80035f6:	07d0      	lsls	r0, r2, #31
 80035f8:	d441      	bmi.n	800367e <HAL_RCC_ClockConfig+0xaa>
 80035fa:	4b3f      	ldr	r3, [pc, #252]	; (80036f8 <HAL_RCC_ClockConfig+0x124>)
 80035fc:	681a      	ldr	r2, [r3, #0]
 80035fe:	f002 020f 	and.w	r2, r2, #15
 8003602:	42aa      	cmp	r2, r5
 8003604:	d866      	bhi.n	80036d4 <HAL_RCC_ClockConfig+0x100>
 8003606:	6822      	ldr	r2, [r4, #0]
 8003608:	0751      	lsls	r1, r2, #29
 800360a:	d46c      	bmi.n	80036e6 <HAL_RCC_ClockConfig+0x112>
 800360c:	0713      	lsls	r3, r2, #28
 800360e:	d507      	bpl.n	8003620 <HAL_RCC_ClockConfig+0x4c>
 8003610:	4a3a      	ldr	r2, [pc, #232]	; (80036fc <HAL_RCC_ClockConfig+0x128>)
 8003612:	6921      	ldr	r1, [r4, #16]
 8003614:	6893      	ldr	r3, [r2, #8]
 8003616:	f423 4360 	bic.w	r3, r3, #57344	; 0xe000
 800361a:	ea43 03c1 	orr.w	r3, r3, r1, lsl #3
 800361e:	6093      	str	r3, [r2, #8]
 8003620:	f7ff ffaa 	bl	8003578 <HAL_RCC_GetSysClockFreq>
 8003624:	4b35      	ldr	r3, [pc, #212]	; (80036fc <HAL_RCC_ClockConfig+0x128>)
 8003626:	4a36      	ldr	r2, [pc, #216]	; (8003700 <HAL_RCC_ClockConfig+0x12c>)
 8003628:	689b      	ldr	r3, [r3, #8]
 800362a:	f3c3 1303 	ubfx	r3, r3, #4, #4
 800362e:	5cd3      	ldrb	r3, [r2, r3]
 8003630:	40d8      	lsrs	r0, r3
 8003632:	4b34      	ldr	r3, [pc, #208]	; (8003704 <HAL_RCC_ClockConfig+0x130>)
 8003634:	6018      	str	r0, [r3, #0]
 8003636:	4b34      	ldr	r3, [pc, #208]	; (8003708 <HAL_RCC_ClockConfig+0x134>)
 8003638:	6818      	ldr	r0, [r3, #0]
 800363a:	f7fe fcf5 	bl	8002028 <HAL_InitTick>
 800363e:	2000      	movs	r0, #0
 8003640:	e7ce      	b.n	80035e0 <HAL_RCC_ClockConfig+0xc>
 8003642:	b2ca      	uxtb	r2, r1
 8003644:	701a      	strb	r2, [r3, #0]
 8003646:	681b      	ldr	r3, [r3, #0]
 8003648:	f003 030f 	and.w	r3, r3, #15
 800364c:	428b      	cmp	r3, r1
 800364e:	d1c6      	bne.n	80035de <HAL_RCC_ClockConfig+0xa>
 8003650:	e7ce      	b.n	80035f0 <HAL_RCC_ClockConfig+0x1c>
 8003652:	4b2a      	ldr	r3, [pc, #168]	; (80036fc <HAL_RCC_ClockConfig+0x128>)
 8003654:	f012 0f04 	tst.w	r2, #4
 8003658:	bf1e      	ittt	ne
 800365a:	6899      	ldrne	r1, [r3, #8]
 800365c:	f441 51e0 	orrne.w	r1, r1, #7168	; 0x1c00
 8003660:	6099      	strne	r1, [r3, #8]
 8003662:	0716      	lsls	r6, r2, #28
 8003664:	bf42      	ittt	mi
 8003666:	6899      	ldrmi	r1, [r3, #8]
 8003668:	f441 4160 	orrmi.w	r1, r1, #57344	; 0xe000
 800366c:	6099      	strmi	r1, [r3, #8]
 800366e:	4923      	ldr	r1, [pc, #140]	; (80036fc <HAL_RCC_ClockConfig+0x128>)
 8003670:	68a0      	ldr	r0, [r4, #8]
 8003672:	688b      	ldr	r3, [r1, #8]
 8003674:	f023 03f0 	bic.w	r3, r3, #240	; 0xf0
 8003678:	4303      	orrs	r3, r0
 800367a:	608b      	str	r3, [r1, #8]
 800367c:	e7bb      	b.n	80035f6 <HAL_RCC_ClockConfig+0x22>
 800367e:	6862      	ldr	r2, [r4, #4]
 8003680:	4b1e      	ldr	r3, [pc, #120]	; (80036fc <HAL_RCC_ClockConfig+0x128>)
 8003682:	2a01      	cmp	r2, #1
 8003684:	d11c      	bne.n	80036c0 <HAL_RCC_ClockConfig+0xec>
 8003686:	681b      	ldr	r3, [r3, #0]
 8003688:	f413 3f00 	tst.w	r3, #131072	; 0x20000
 800368c:	d0a7      	beq.n	80035de <HAL_RCC_ClockConfig+0xa>
 800368e:	4e1b      	ldr	r6, [pc, #108]	; (80036fc <HAL_RCC_ClockConfig+0x128>)
 8003690:	68b3      	ldr	r3, [r6, #8]
 8003692:	f023 0303 	bic.w	r3, r3, #3
 8003696:	4313      	orrs	r3, r2
 8003698:	60b3      	str	r3, [r6, #8]
 800369a:	f7fe fd0f 	bl	80020bc <HAL_GetTick>
 800369e:	f241 3888 	movw	r8, #5000	; 0x1388
 80036a2:	4607      	mov	r7, r0
 80036a4:	68b3      	ldr	r3, [r6, #8]
 80036a6:	6862      	ldr	r2, [r4, #4]
 80036a8:	f003 030c 	and.w	r3, r3, #12
 80036ac:	ebb3 0f82 	cmp.w	r3, r2, lsl #2
 80036b0:	d0a3      	beq.n	80035fa <HAL_RCC_ClockConfig+0x26>
 80036b2:	f7fe fd03 	bl	80020bc <HAL_GetTick>
 80036b6:	1bc0      	subs	r0, r0, r7
 80036b8:	4540      	cmp	r0, r8
 80036ba:	d9f3      	bls.n	80036a4 <HAL_RCC_ClockConfig+0xd0>
 80036bc:	2003      	movs	r0, #3
 80036be:	e78f      	b.n	80035e0 <HAL_RCC_ClockConfig+0xc>
 80036c0:	1e91      	subs	r1, r2, #2
 80036c2:	2901      	cmp	r1, #1
 80036c4:	681b      	ldr	r3, [r3, #0]
 80036c6:	d802      	bhi.n	80036ce <HAL_RCC_ClockConfig+0xfa>
 80036c8:	f013 7f00 	tst.w	r3, #33554432	; 0x2000000
 80036cc:	e7de      	b.n	800368c <HAL_RCC_ClockConfig+0xb8>
 80036ce:	f013 0f02 	tst.w	r3, #2
 80036d2:	e7db      	b.n	800368c <HAL_RCC_ClockConfig+0xb8>
 80036d4:	b2ea      	uxtb	r2, r5
 80036d6:	701a      	strb	r2, [r3, #0]
 80036d8:	681b      	ldr	r3, [r3, #0]
 80036da:	f003 030f 	and.w	r3, r3, #15
 80036de:	42ab      	cmp	r3, r5
 80036e0:	f47f af7d 	bne.w	80035de <HAL_RCC_ClockConfig+0xa>
 80036e4:	e78f      	b.n	8003606 <HAL_RCC_ClockConfig+0x32>
 80036e6:	4905      	ldr	r1, [pc, #20]	; (80036fc <HAL_RCC_ClockConfig+0x128>)
 80036e8:	68e0      	ldr	r0, [r4, #12]
 80036ea:	688b      	ldr	r3, [r1, #8]
 80036ec:	f423 53e0 	bic.w	r3, r3, #7168	; 0x1c00
 80036f0:	4303      	orrs	r3, r0
 80036f2:	608b      	str	r3, [r1, #8]
 80036f4:	e78a      	b.n	800360c <HAL_RCC_ClockConfig+0x38>
 80036f6:	bf00      	nop
 80036f8:	40023c00 	.word	0x40023c00
 80036fc:	40023800 	.word	0x40023800
 8003700:	080060b4 	.word	0x080060b4
 8003704:	20000000 	.word	0x20000000
 8003708:	20000008 	.word	0x20000008

0800370c <HAL_RCC_GetPCLK1Freq>:
 800370c:	4b04      	ldr	r3, [pc, #16]	; (8003720 <HAL_RCC_GetPCLK1Freq+0x14>)
 800370e:	4a05      	ldr	r2, [pc, #20]	; (8003724 <HAL_RCC_GetPCLK1Freq+0x18>)
 8003710:	689b      	ldr	r3, [r3, #8]
 8003712:	f3c3 2382 	ubfx	r3, r3, #10, #3
 8003716:	5cd3      	ldrb	r3, [r2, r3]
 8003718:	4a03      	ldr	r2, [pc, #12]	; (8003728 <HAL_RCC_GetPCLK1Freq+0x1c>)
 800371a:	6810      	ldr	r0, [r2, #0]
 800371c:	40d8      	lsrs	r0, r3
 800371e:	4770      	bx	lr
 8003720:	40023800 	.word	0x40023800
 8003724:	080060c4 	.word	0x080060c4
 8003728:	20000000 	.word	0x20000000

0800372c <HAL_RCC_GetPCLK2Freq>:
 800372c:	4b04      	ldr	r3, [pc, #16]	; (8003740 <HAL_RCC_GetPCLK2Freq+0x14>)
 800372e:	4a05      	ldr	r2, [pc, #20]	; (8003744 <HAL_RCC_GetPCLK2Freq+0x18>)
 8003730:	689b      	ldr	r3, [r3, #8]
 8003732:	f3c3 3342 	ubfx	r3, r3, #13, #3
 8003736:	5cd3      	ldrb	r3, [r2, r3]
 8003738:	4a03      	ldr	r2, [pc, #12]	; (8003748 <HAL_RCC_GetPCLK2Freq+0x1c>)
 800373a:	6810      	ldr	r0, [r2, #0]
 800373c:	40d8      	lsrs	r0, r3
 800373e:	4770      	bx	lr
 8003740:	40023800 	.word	0x40023800
 8003744:	080060c4 	.word	0x080060c4
 8003748:	20000000 	.word	0x20000000

0800374c <HAL_RCCEx_PeriphCLKConfig>:
 800374c:	6803      	ldr	r3, [r0, #0]
 800374e:	f013 0f43 	tst.w	r3, #67	; 0x43
 8003752:	b5f7      	push	{r0, r1, r2, r4, r5, r6, r7, lr}
 8003754:	4604      	mov	r4, r0
 8003756:	f040 808a 	bne.w	800386e <HAL_RCCEx_PeriphCLKConfig+0x122>
 800375a:	6823      	ldr	r3, [r4, #0]
 800375c:	f013 0f0c 	tst.w	r3, #12
 8003760:	d044      	beq.n	80037ec <HAL_RCCEx_PeriphCLKConfig+0xa0>
 8003762:	4d89      	ldr	r5, [pc, #548]	; (8003988 <HAL_RCCEx_PeriphCLKConfig+0x23c>)
 8003764:	4e89      	ldr	r6, [pc, #548]	; (800398c <HAL_RCCEx_PeriphCLKConfig+0x240>)
 8003766:	2300      	movs	r3, #0
 8003768:	602b      	str	r3, [r5, #0]
 800376a:	f7fe fca7 	bl	80020bc <HAL_GetTick>
 800376e:	4607      	mov	r7, r0
 8003770:	6833      	ldr	r3, [r6, #0]
 8003772:	009b      	lsls	r3, r3, #2
 8003774:	f100 80cc 	bmi.w	8003910 <HAL_RCCEx_PeriphCLKConfig+0x1c4>
 8003778:	6821      	ldr	r1, [r4, #0]
 800377a:	074f      	lsls	r7, r1, #29
 800377c:	d515      	bpl.n	80037aa <HAL_RCCEx_PeriphCLKConfig+0x5e>
 800377e:	e9d4 0304 	ldrd	r0, r3, [r4, #16]
 8003782:	f8d6 2088 	ldr.w	r2, [r6, #136]	; 0x88
 8003786:	061b      	lsls	r3, r3, #24
 8003788:	f002 42e0 	and.w	r2, r2, #1879048192	; 0x70000000
 800378c:	ea43 1380 	orr.w	r3, r3, r0, lsl #6
 8003790:	4313      	orrs	r3, r2
 8003792:	f8c6 3088 	str.w	r3, [r6, #136]	; 0x88
 8003796:	f8d6 308c 	ldr.w	r3, [r6, #140]	; 0x8c
 800379a:	6a22      	ldr	r2, [r4, #32]
 800379c:	f423 53f8 	bic.w	r3, r3, #7936	; 0x1f00
 80037a0:	3a01      	subs	r2, #1
 80037a2:	ea43 2302 	orr.w	r3, r3, r2, lsl #8
 80037a6:	f8c6 308c 	str.w	r3, [r6, #140]	; 0x8c
 80037aa:	070e      	lsls	r6, r1, #28
 80037ac:	d514      	bpl.n	80037d8 <HAL_RCCEx_PeriphCLKConfig+0x8c>
 80037ae:	4a77      	ldr	r2, [pc, #476]	; (800398c <HAL_RCCEx_PeriphCLKConfig+0x240>)
 80037b0:	69a3      	ldr	r3, [r4, #24]
 80037b2:	f8d2 1088 	ldr.w	r1, [r2, #136]	; 0x88
 80037b6:	6920      	ldr	r0, [r4, #16]
 80037b8:	071b      	lsls	r3, r3, #28
 80037ba:	f001 6170 	and.w	r1, r1, #251658240	; 0xf000000
 80037be:	ea43 1380 	orr.w	r3, r3, r0, lsl #6
 80037c2:	430b      	orrs	r3, r1
 80037c4:	f8c2 3088 	str.w	r3, [r2, #136]	; 0x88
 80037c8:	f8d2 308c 	ldr.w	r3, [r2, #140]	; 0x8c
 80037cc:	6a61      	ldr	r1, [r4, #36]	; 0x24
 80037ce:	f423 3340 	bic.w	r3, r3, #196608	; 0x30000
 80037d2:	430b      	orrs	r3, r1
 80037d4:	f8c2 308c 	str.w	r3, [r2, #140]	; 0x8c
 80037d8:	2301      	movs	r3, #1
 80037da:	602b      	str	r3, [r5, #0]
 80037dc:	f7fe fc6e 	bl	80020bc <HAL_GetTick>
 80037e0:	4e6a      	ldr	r6, [pc, #424]	; (800398c <HAL_RCCEx_PeriphCLKConfig+0x240>)
 80037e2:	4605      	mov	r5, r0
 80037e4:	6833      	ldr	r3, [r6, #0]
 80037e6:	0098      	lsls	r0, r3, #2
 80037e8:	f140 8099 	bpl.w	800391e <HAL_RCCEx_PeriphCLKConfig+0x1d2>
 80037ec:	6823      	ldr	r3, [r4, #0]
 80037ee:	069a      	lsls	r2, r3, #26
 80037f0:	d533      	bpl.n	800385a <HAL_RCCEx_PeriphCLKConfig+0x10e>
 80037f2:	2300      	movs	r3, #0
 80037f4:	9301      	str	r3, [sp, #4]
 80037f6:	4b65      	ldr	r3, [pc, #404]	; (800398c <HAL_RCCEx_PeriphCLKConfig+0x240>)
 80037f8:	4d65      	ldr	r5, [pc, #404]	; (8003990 <HAL_RCCEx_PeriphCLKConfig+0x244>)
 80037fa:	6c1a      	ldr	r2, [r3, #64]	; 0x40
 80037fc:	f042 5280 	orr.w	r2, r2, #268435456	; 0x10000000
 8003800:	641a      	str	r2, [r3, #64]	; 0x40
 8003802:	6c1b      	ldr	r3, [r3, #64]	; 0x40
 8003804:	f003 5380 	and.w	r3, r3, #268435456	; 0x10000000
 8003808:	9301      	str	r3, [sp, #4]
 800380a:	9b01      	ldr	r3, [sp, #4]
 800380c:	682b      	ldr	r3, [r5, #0]
 800380e:	f443 7380 	orr.w	r3, r3, #256	; 0x100
 8003812:	602b      	str	r3, [r5, #0]
 8003814:	f7fe fc52 	bl	80020bc <HAL_GetTick>
 8003818:	4606      	mov	r6, r0
 800381a:	682b      	ldr	r3, [r5, #0]
 800381c:	05d9      	lsls	r1, r3, #23
 800381e:	f140 8085 	bpl.w	800392c <HAL_RCCEx_PeriphCLKConfig+0x1e0>
 8003822:	4d5a      	ldr	r5, [pc, #360]	; (800398c <HAL_RCCEx_PeriphCLKConfig+0x240>)
 8003824:	6f2b      	ldr	r3, [r5, #112]	; 0x70
 8003826:	f413 7340 	ands.w	r3, r3, #768	; 0x300
 800382a:	f040 8086 	bne.w	800393a <HAL_RCCEx_PeriphCLKConfig+0x1ee>
 800382e:	6aa3      	ldr	r3, [r4, #40]	; 0x28
 8003830:	f403 7240 	and.w	r2, r3, #768	; 0x300
 8003834:	f5b2 7f40 	cmp.w	r2, #768	; 0x300
 8003838:	4a54      	ldr	r2, [pc, #336]	; (800398c <HAL_RCCEx_PeriphCLKConfig+0x240>)
 800383a:	f040 80a0 	bne.w	800397e <HAL_RCCEx_PeriphCLKConfig+0x232>
 800383e:	6891      	ldr	r1, [r2, #8]
 8003840:	f023 4070 	bic.w	r0, r3, #4026531840	; 0xf0000000
 8003844:	f421 11f8 	bic.w	r1, r1, #2031616	; 0x1f0000
 8003848:	f420 7040 	bic.w	r0, r0, #768	; 0x300
 800384c:	4301      	orrs	r1, r0
 800384e:	6091      	str	r1, [r2, #8]
 8003850:	6f11      	ldr	r1, [r2, #112]	; 0x70
 8003852:	f3c3 030b 	ubfx	r3, r3, #0, #12
 8003856:	430b      	orrs	r3, r1
 8003858:	6713      	str	r3, [r2, #112]	; 0x70
 800385a:	6820      	ldr	r0, [r4, #0]
 800385c:	f010 0010 	ands.w	r0, r0, #16
 8003860:	bf1f      	itttt	ne
 8003862:	4b4c      	ldrne	r3, [pc, #304]	; (8003994 <HAL_RCCEx_PeriphCLKConfig+0x248>)
 8003864:	f894 202c 	ldrbne.w	r2, [r4, #44]	; 0x2c
 8003868:	601a      	strne	r2, [r3, #0]
 800386a:	2000      	movne	r0, #0
 800386c:	e04e      	b.n	800390c <HAL_RCCEx_PeriphCLKConfig+0x1c0>
 800386e:	4d4a      	ldr	r5, [pc, #296]	; (8003998 <HAL_RCCEx_PeriphCLKConfig+0x24c>)
 8003870:	4f46      	ldr	r7, [pc, #280]	; (800398c <HAL_RCCEx_PeriphCLKConfig+0x240>)
 8003872:	2300      	movs	r3, #0
 8003874:	602b      	str	r3, [r5, #0]
 8003876:	f7fe fc21 	bl	80020bc <HAL_GetTick>
 800387a:	4606      	mov	r6, r0
 800387c:	683b      	ldr	r3, [r7, #0]
 800387e:	011a      	lsls	r2, r3, #4
 8003880:	d43e      	bmi.n	8003900 <HAL_RCCEx_PeriphCLKConfig+0x1b4>
 8003882:	6821      	ldr	r1, [r4, #0]
 8003884:	07cb      	lsls	r3, r1, #31
 8003886:	bf41      	itttt	mi
 8003888:	e9d4 2301 	ldrdmi	r2, r3, [r4, #4]
 800388c:	071b      	lslmi	r3, r3, #28
 800388e:	ea43 1382 	orrmi.w	r3, r3, r2, lsl #6
 8003892:	f8c7 3084 	strmi.w	r3, [r7, #132]	; 0x84
 8003896:	078e      	lsls	r6, r1, #30
 8003898:	d515      	bpl.n	80038c6 <HAL_RCCEx_PeriphCLKConfig+0x17a>
 800389a:	4a3c      	ldr	r2, [pc, #240]	; (800398c <HAL_RCCEx_PeriphCLKConfig+0x240>)
 800389c:	68e3      	ldr	r3, [r4, #12]
 800389e:	f8d2 0084 	ldr.w	r0, [r2, #132]	; 0x84
 80038a2:	6866      	ldr	r6, [r4, #4]
 80038a4:	061b      	lsls	r3, r3, #24
 80038a6:	f000 40e0 	and.w	r0, r0, #1879048192	; 0x70000000
 80038aa:	ea43 1386 	orr.w	r3, r3, r6, lsl #6
 80038ae:	4303      	orrs	r3, r0
 80038b0:	f8c2 3084 	str.w	r3, [r2, #132]	; 0x84
 80038b4:	f8d2 008c 	ldr.w	r0, [r2, #140]	; 0x8c
 80038b8:	69e3      	ldr	r3, [r4, #28]
 80038ba:	f020 001f 	bic.w	r0, r0, #31
 80038be:	3b01      	subs	r3, #1
 80038c0:	4303      	orrs	r3, r0
 80038c2:	f8c2 308c 	str.w	r3, [r2, #140]	; 0x8c
 80038c6:	0648      	lsls	r0, r1, #25
 80038c8:	d50a      	bpl.n	80038e0 <HAL_RCCEx_PeriphCLKConfig+0x194>
 80038ca:	68e3      	ldr	r3, [r4, #12]
 80038cc:	6862      	ldr	r2, [r4, #4]
 80038ce:	061b      	lsls	r3, r3, #24
 80038d0:	ea43 1382 	orr.w	r3, r3, r2, lsl #6
 80038d4:	68a2      	ldr	r2, [r4, #8]
 80038d6:	ea43 7302 	orr.w	r3, r3, r2, lsl #28
 80038da:	4a2c      	ldr	r2, [pc, #176]	; (800398c <HAL_RCCEx_PeriphCLKConfig+0x240>)
 80038dc:	f8c2 3084 	str.w	r3, [r2, #132]	; 0x84
 80038e0:	2301      	movs	r3, #1
 80038e2:	602b      	str	r3, [r5, #0]
 80038e4:	f7fe fbea 	bl	80020bc <HAL_GetTick>
 80038e8:	4e28      	ldr	r6, [pc, #160]	; (800398c <HAL_RCCEx_PeriphCLKConfig+0x240>)
 80038ea:	4605      	mov	r5, r0
 80038ec:	6833      	ldr	r3, [r6, #0]
 80038ee:	0119      	lsls	r1, r3, #4
 80038f0:	f53f af33 	bmi.w	800375a <HAL_RCCEx_PeriphCLKConfig+0xe>
 80038f4:	f7fe fbe2 	bl	80020bc <HAL_GetTick>
 80038f8:	1b40      	subs	r0, r0, r5
 80038fa:	2802      	cmp	r0, #2
 80038fc:	d9f6      	bls.n	80038ec <HAL_RCCEx_PeriphCLKConfig+0x1a0>
 80038fe:	e004      	b.n	800390a <HAL_RCCEx_PeriphCLKConfig+0x1be>
 8003900:	f7fe fbdc 	bl	80020bc <HAL_GetTick>
 8003904:	1b80      	subs	r0, r0, r6
 8003906:	2802      	cmp	r0, #2
 8003908:	d9b8      	bls.n	800387c <HAL_RCCEx_PeriphCLKConfig+0x130>
 800390a:	2003      	movs	r0, #3
 800390c:	b003      	add	sp, #12
 800390e:	bdf0      	pop	{r4, r5, r6, r7, pc}
 8003910:	f7fe fbd4 	bl	80020bc <HAL_GetTick>
 8003914:	1bc0      	subs	r0, r0, r7
 8003916:	2802      	cmp	r0, #2
 8003918:	f67f af2a 	bls.w	8003770 <HAL_RCCEx_PeriphCLKConfig+0x24>
 800391c:	e7f5      	b.n	800390a <HAL_RCCEx_PeriphCLKConfig+0x1be>
 800391e:	f7fe fbcd 	bl	80020bc <HAL_GetTick>
 8003922:	1b40      	subs	r0, r0, r5
 8003924:	2802      	cmp	r0, #2
 8003926:	f67f af5d 	bls.w	80037e4 <HAL_RCCEx_PeriphCLKConfig+0x98>
 800392a:	e7ee      	b.n	800390a <HAL_RCCEx_PeriphCLKConfig+0x1be>
 800392c:	f7fe fbc6 	bl	80020bc <HAL_GetTick>
 8003930:	1b80      	subs	r0, r0, r6
 8003932:	2802      	cmp	r0, #2
 8003934:	f67f af71 	bls.w	800381a <HAL_RCCEx_PeriphCLKConfig+0xce>
 8003938:	e7e7      	b.n	800390a <HAL_RCCEx_PeriphCLKConfig+0x1be>
 800393a:	6aa2      	ldr	r2, [r4, #40]	; 0x28
 800393c:	f402 7240 	and.w	r2, r2, #768	; 0x300
 8003940:	4293      	cmp	r3, r2
 8003942:	f43f af74 	beq.w	800382e <HAL_RCCEx_PeriphCLKConfig+0xe2>
 8003946:	6f2b      	ldr	r3, [r5, #112]	; 0x70
 8003948:	4a14      	ldr	r2, [pc, #80]	; (800399c <HAL_RCCEx_PeriphCLKConfig+0x250>)
 800394a:	2101      	movs	r1, #1
 800394c:	6011      	str	r1, [r2, #0]
 800394e:	f423 7340 	bic.w	r3, r3, #768	; 0x300
 8003952:	2100      	movs	r1, #0
 8003954:	6011      	str	r1, [r2, #0]
 8003956:	672b      	str	r3, [r5, #112]	; 0x70
 8003958:	6f2b      	ldr	r3, [r5, #112]	; 0x70
 800395a:	07da      	lsls	r2, r3, #31
 800395c:	f57f af67 	bpl.w	800382e <HAL_RCCEx_PeriphCLKConfig+0xe2>
 8003960:	f7fe fbac 	bl	80020bc <HAL_GetTick>
 8003964:	f241 3788 	movw	r7, #5000	; 0x1388
 8003968:	4606      	mov	r6, r0
 800396a:	6f2b      	ldr	r3, [r5, #112]	; 0x70
 800396c:	079b      	lsls	r3, r3, #30
 800396e:	f53f af5e 	bmi.w	800382e <HAL_RCCEx_PeriphCLKConfig+0xe2>
 8003972:	f7fe fba3 	bl	80020bc <HAL_GetTick>
 8003976:	1b80      	subs	r0, r0, r6
 8003978:	42b8      	cmp	r0, r7
 800397a:	d9f6      	bls.n	800396a <HAL_RCCEx_PeriphCLKConfig+0x21e>
 800397c:	e7c5      	b.n	800390a <HAL_RCCEx_PeriphCLKConfig+0x1be>
 800397e:	6891      	ldr	r1, [r2, #8]
 8003980:	f421 11f8 	bic.w	r1, r1, #2031616	; 0x1f0000
 8003984:	e763      	b.n	800384e <HAL_RCCEx_PeriphCLKConfig+0x102>
 8003986:	bf00      	nop
 8003988:	42470070 	.word	0x42470070
 800398c:	40023800 	.word	0x40023800
 8003990:	40007000 	.word	0x40007000
 8003994:	424711e0 	.word	0x424711e0
 8003998:	42470068 	.word	0x42470068
 800399c:	42470e40 	.word	0x42470e40

080039a0 <SD_FindSCR>:
 80039a0:	b5f0      	push	{r4, r5, r6, r7, lr}
 80039a2:	b089      	sub	sp, #36	; 0x24
 80039a4:	4605      	mov	r5, r0
 80039a6:	460e      	mov	r6, r1
 80039a8:	f7fe fb88 	bl	80020bc <HAL_GetTick>
 80039ac:	2300      	movs	r3, #0
 80039ae:	4607      	mov	r7, r0
 80039b0:	2108      	movs	r1, #8
 80039b2:	6828      	ldr	r0, [r5, #0]
 80039b4:	e9cd 3300 	strd	r3, r3, [sp]
 80039b8:	f000 ffdb 	bl	8004972 <SDMMC_CmdBlockLength>
 80039bc:	4604      	mov	r4, r0
 80039be:	b9d8      	cbnz	r0, 80039f8 <SD_FindSCR+0x58>
 80039c0:	6d29      	ldr	r1, [r5, #80]	; 0x50
 80039c2:	6828      	ldr	r0, [r5, #0]
 80039c4:	0409      	lsls	r1, r1, #16
 80039c6:	f001 f8e1 	bl	8004b8c <SDMMC_CmdAppCommand>
 80039ca:	4604      	mov	r4, r0
 80039cc:	b9a0      	cbnz	r0, 80039f8 <SD_FindSCR+0x58>
 80039ce:	f04f 32ff 	mov.w	r2, #4294967295
 80039d2:	2308      	movs	r3, #8
 80039d4:	e9cd 2302 	strd	r2, r3, [sp, #8]
 80039d8:	2130      	movs	r1, #48	; 0x30
 80039da:	2302      	movs	r3, #2
 80039dc:	e9cd 1304 	strd	r1, r3, [sp, #16]
 80039e0:	9006      	str	r0, [sp, #24]
 80039e2:	2301      	movs	r3, #1
 80039e4:	a902      	add	r1, sp, #8
 80039e6:	6828      	ldr	r0, [r5, #0]
 80039e8:	9307      	str	r3, [sp, #28]
 80039ea:	f000 ffaf 	bl	800494c <SDIO_ConfigData>
 80039ee:	6828      	ldr	r0, [r5, #0]
 80039f0:	f001 f915 	bl	8004c1e <SDMMC_CmdSendSCR>
 80039f4:	4604      	mov	r4, r0
 80039f6:	b190      	cbz	r0, 8003a1e <SD_FindSCR+0x7e>
 80039f8:	4620      	mov	r0, r4
 80039fa:	b009      	add	sp, #36	; 0x24
 80039fc:	bdf0      	pop	{r4, r5, r6, r7, pc}
 80039fe:	6b42      	ldr	r2, [r0, #52]	; 0x34
 8003a00:	0293      	lsls	r3, r2, #10
 8003a02:	d512      	bpl.n	8003a2a <SD_FindSCR+0x8a>
 8003a04:	f000 ff78 	bl	80048f8 <SDIO_ReadFIFO>
 8003a08:	ab08      	add	r3, sp, #32
 8003a0a:	eb03 0384 	add.w	r3, r3, r4, lsl #2
 8003a0e:	3401      	adds	r4, #1
 8003a10:	f843 0c20 	str.w	r0, [r3, #-32]
 8003a14:	f7fe fb52 	bl	80020bc <HAL_GetTick>
 8003a18:	1bc0      	subs	r0, r0, r7
 8003a1a:	3001      	adds	r0, #1
 8003a1c:	d023      	beq.n	8003a66 <SD_FindSCR+0xc6>
 8003a1e:	6828      	ldr	r0, [r5, #0]
 8003a20:	6b42      	ldr	r2, [r0, #52]	; 0x34
 8003a22:	f012 0f2a 	tst.w	r2, #42	; 0x2a
 8003a26:	d0ea      	beq.n	80039fe <SD_FindSCR+0x5e>
 8003a28:	e002      	b.n	8003a30 <SD_FindSCR+0x90>
 8003a2a:	6b42      	ldr	r2, [r0, #52]	; 0x34
 8003a2c:	0491      	lsls	r1, r2, #18
 8003a2e:	d4f1      	bmi.n	8003a14 <SD_FindSCR+0x74>
 8003a30:	6b42      	ldr	r2, [r0, #52]	; 0x34
 8003a32:	0712      	lsls	r2, r2, #28
 8003a34:	d502      	bpl.n	8003a3c <SD_FindSCR+0x9c>
 8003a36:	2408      	movs	r4, #8
 8003a38:	6384      	str	r4, [r0, #56]	; 0x38
 8003a3a:	e7dd      	b.n	80039f8 <SD_FindSCR+0x58>
 8003a3c:	6b42      	ldr	r2, [r0, #52]	; 0x34
 8003a3e:	0793      	lsls	r3, r2, #30
 8003a40:	d501      	bpl.n	8003a46 <SD_FindSCR+0xa6>
 8003a42:	2402      	movs	r4, #2
 8003a44:	e7f8      	b.n	8003a38 <SD_FindSCR+0x98>
 8003a46:	6b44      	ldr	r4, [r0, #52]	; 0x34
 8003a48:	f014 0420 	ands.w	r4, r4, #32
 8003a4c:	d001      	beq.n	8003a52 <SD_FindSCR+0xb2>
 8003a4e:	2420      	movs	r4, #32
 8003a50:	e7f2      	b.n	8003a38 <SD_FindSCR+0x98>
 8003a52:	9b01      	ldr	r3, [sp, #4]
 8003a54:	f240 523a 	movw	r2, #1338	; 0x53a
 8003a58:	ba1b      	rev	r3, r3
 8003a5a:	6382      	str	r2, [r0, #56]	; 0x38
 8003a5c:	6033      	str	r3, [r6, #0]
 8003a5e:	9b00      	ldr	r3, [sp, #0]
 8003a60:	ba1b      	rev	r3, r3
 8003a62:	6073      	str	r3, [r6, #4]
 8003a64:	e7c8      	b.n	80039f8 <SD_FindSCR+0x58>
 8003a66:	f04f 4400 	mov.w	r4, #2147483648	; 0x80000000
 8003a6a:	e7c5      	b.n	80039f8 <SD_FindSCR+0x58>

08003a6c <HAL_SD_ReadBlocks>:
 8003a6c:	e92d 4ff0 	stmdb	sp!, {r4, r5, r6, r7, r8, r9, sl, fp, lr}
 8003a70:	b089      	sub	sp, #36	; 0x24
 8003a72:	4604      	mov	r4, r0
 8003a74:	460d      	mov	r5, r1
 8003a76:	4616      	mov	r6, r2
 8003a78:	469a      	mov	sl, r3
 8003a7a:	f7fe fb1f 	bl	80020bc <HAL_GetTick>
 8003a7e:	4680      	mov	r8, r0
 8003a80:	b92d      	cbnz	r5, 8003a8e <HAL_SD_ReadBlocks+0x22>
 8003a82:	6ba3      	ldr	r3, [r4, #56]	; 0x38
 8003a84:	f043 6300 	orr.w	r3, r3, #134217728	; 0x8000000
 8003a88:	63a3      	str	r3, [r4, #56]	; 0x38
 8003a8a:	2701      	movs	r7, #1
 8003a8c:	e010      	b.n	8003ab0 <HAL_SD_ReadBlocks+0x44>
 8003a8e:	f894 3034 	ldrb.w	r3, [r4, #52]	; 0x34
 8003a92:	2b01      	cmp	r3, #1
 8003a94:	b2df      	uxtb	r7, r3
 8003a96:	f040 80e7 	bne.w	8003c68 <HAL_SD_ReadBlocks+0x1fc>
 8003a9a:	6de2      	ldr	r2, [r4, #92]	; 0x5c
 8003a9c:	eb06 030a 	add.w	r3, r6, sl
 8003aa0:	2100      	movs	r1, #0
 8003aa2:	4293      	cmp	r3, r2
 8003aa4:	63a1      	str	r1, [r4, #56]	; 0x38
 8003aa6:	d907      	bls.n	8003ab8 <HAL_SD_ReadBlocks+0x4c>
 8003aa8:	6ba3      	ldr	r3, [r4, #56]	; 0x38
 8003aaa:	f043 7300 	orr.w	r3, r3, #33554432	; 0x2000000
 8003aae:	63a3      	str	r3, [r4, #56]	; 0x38
 8003ab0:	4638      	mov	r0, r7
 8003ab2:	b009      	add	sp, #36	; 0x24
 8003ab4:	e8bd 8ff0 	ldmia.w	sp!, {r4, r5, r6, r7, r8, r9, sl, fp, pc}
 8003ab8:	2303      	movs	r3, #3
 8003aba:	f884 3034 	strb.w	r3, [r4, #52]	; 0x34
 8003abe:	6c63      	ldr	r3, [r4, #68]	; 0x44
 8003ac0:	6820      	ldr	r0, [r4, #0]
 8003ac2:	2b01      	cmp	r3, #1
 8003ac4:	f04f 33ff 	mov.w	r3, #4294967295
 8003ac8:	9302      	str	r3, [sp, #8]
 8003aca:	ea4f 234a 	mov.w	r3, sl, lsl #9
 8003ace:	62c1      	str	r1, [r0, #44]	; 0x2c
 8003ad0:	9303      	str	r3, [sp, #12]
 8003ad2:	f04f 0200 	mov.w	r2, #0
 8003ad6:	f04f 0390 	mov.w	r3, #144	; 0x90
 8003ada:	f04f 0b01 	mov.w	fp, #1
 8003ade:	f04f 0902 	mov.w	r9, #2
 8003ae2:	a902      	add	r1, sp, #8
 8003ae4:	bf18      	it	ne
 8003ae6:	0276      	lslne	r6, r6, #9
 8003ae8:	e9cd 3904 	strd	r3, r9, [sp, #16]
 8003aec:	e9cd 2b06 	strd	r2, fp, [sp, #24]
 8003af0:	f000 ff2c 	bl	800494c <SDIO_ConfigData>
 8003af4:	45da      	cmp	sl, fp
 8003af6:	d912      	bls.n	8003b1e <HAL_SD_ReadBlocks+0xb2>
 8003af8:	6820      	ldr	r0, [r4, #0]
 8003afa:	f8c4 9030 	str.w	r9, [r4, #48]	; 0x30
 8003afe:	4631      	mov	r1, r6
 8003b00:	f000 ff67 	bl	80049d2 <SDMMC_CmdReadMultiBlock>
 8003b04:	b190      	cbz	r0, 8003b2c <HAL_SD_ReadBlocks+0xc0>
 8003b06:	6823      	ldr	r3, [r4, #0]
 8003b08:	4a59      	ldr	r2, [pc, #356]	; (8003c70 <HAL_SD_ReadBlocks+0x204>)
 8003b0a:	639a      	str	r2, [r3, #56]	; 0x38
 8003b0c:	6ba3      	ldr	r3, [r4, #56]	; 0x38
 8003b0e:	4318      	orrs	r0, r3
 8003b10:	63a0      	str	r0, [r4, #56]	; 0x38
 8003b12:	2301      	movs	r3, #1
 8003b14:	f884 3034 	strb.w	r3, [r4, #52]	; 0x34
 8003b18:	2300      	movs	r3, #0
 8003b1a:	6323      	str	r3, [r4, #48]	; 0x30
 8003b1c:	e7c8      	b.n	8003ab0 <HAL_SD_ReadBlocks+0x44>
 8003b1e:	6820      	ldr	r0, [r4, #0]
 8003b20:	f8c4 b030 	str.w	fp, [r4, #48]	; 0x30
 8003b24:	4631      	mov	r1, r6
 8003b26:	f000 ff3c 	bl	80049a2 <SDMMC_CmdReadSingleBlock>
 8003b2a:	e7eb      	b.n	8003b04 <HAL_SD_ReadBlocks+0x98>
 8003b2c:	9e03      	ldr	r6, [sp, #12]
 8003b2e:	f240 3b2a 	movw	fp, #810	; 0x32a
 8003b32:	6820      	ldr	r0, [r4, #0]
 8003b34:	6b43      	ldr	r3, [r0, #52]	; 0x34
 8003b36:	ea13 0f0b 	tst.w	r3, fp
 8003b3a:	6b43      	ldr	r3, [r0, #52]	; 0x34
 8003b3c:	d017      	beq.n	8003b6e <HAL_SD_ReadBlocks+0x102>
 8003b3e:	05db      	lsls	r3, r3, #23
 8003b40:	d509      	bpl.n	8003b56 <HAL_SD_ReadBlocks+0xea>
 8003b42:	f1ba 0f01 	cmp.w	sl, #1
 8003b46:	d906      	bls.n	8003b56 <HAL_SD_ReadBlocks+0xea>
 8003b48:	6c63      	ldr	r3, [r4, #68]	; 0x44
 8003b4a:	2b03      	cmp	r3, #3
 8003b4c:	d003      	beq.n	8003b56 <HAL_SD_ReadBlocks+0xea>
 8003b4e:	f000 ff89 	bl	8004a64 <SDMMC_CmdStopTransfer>
 8003b52:	2800      	cmp	r0, #0
 8003b54:	d1d7      	bne.n	8003b06 <HAL_SD_ReadBlocks+0x9a>
 8003b56:	6823      	ldr	r3, [r4, #0]
 8003b58:	6b59      	ldr	r1, [r3, #52]	; 0x34
 8003b5a:	f011 0108 	ands.w	r1, r1, #8
 8003b5e:	d038      	beq.n	8003bd2 <HAL_SD_ReadBlocks+0x166>
 8003b60:	4a43      	ldr	r2, [pc, #268]	; (8003c70 <HAL_SD_ReadBlocks+0x204>)
 8003b62:	639a      	str	r2, [r3, #56]	; 0x38
 8003b64:	6ba3      	ldr	r3, [r4, #56]	; 0x38
 8003b66:	f043 0308 	orr.w	r3, r3, #8
 8003b6a:	63a3      	str	r3, [r4, #56]	; 0x38
 8003b6c:	e7d1      	b.n	8003b12 <HAL_SD_ReadBlocks+0xa6>
 8003b6e:	041a      	lsls	r2, r3, #16
 8003b70:	d51a      	bpl.n	8003ba8 <HAL_SD_ReadBlocks+0x13c>
 8003b72:	b1ce      	cbz	r6, 8003ba8 <HAL_SD_ReadBlocks+0x13c>
 8003b74:	f105 0904 	add.w	r9, r5, #4
 8003b78:	f105 0224 	add.w	r2, r5, #36	; 0x24
 8003b7c:	6820      	ldr	r0, [r4, #0]
 8003b7e:	9201      	str	r2, [sp, #4]
 8003b80:	f000 feba 	bl	80048f8 <SDIO_ReadFIFO>
 8003b84:	0a01      	lsrs	r1, r0, #8
 8003b86:	f809 0c04 	strb.w	r0, [r9, #-4]
 8003b8a:	f809 1c03 	strb.w	r1, [r9, #-3]
 8003b8e:	9a01      	ldr	r2, [sp, #4]
 8003b90:	0c01      	lsrs	r1, r0, #16
 8003b92:	0e00      	lsrs	r0, r0, #24
 8003b94:	f809 1c02 	strb.w	r1, [r9, #-2]
 8003b98:	f809 0c01 	strb.w	r0, [r9, #-1]
 8003b9c:	f109 0904 	add.w	r9, r9, #4
 8003ba0:	454a      	cmp	r2, r9
 8003ba2:	d1eb      	bne.n	8003b7c <HAL_SD_ReadBlocks+0x110>
 8003ba4:	3520      	adds	r5, #32
 8003ba6:	3e20      	subs	r6, #32
 8003ba8:	f7fe fa88 	bl	80020bc <HAL_GetTick>
 8003bac:	9b12      	ldr	r3, [sp, #72]	; 0x48
 8003bae:	eba0 0008 	sub.w	r0, r0, r8
 8003bb2:	4298      	cmp	r0, r3
 8003bb4:	d3bd      	bcc.n	8003b32 <HAL_SD_ReadBlocks+0xc6>
 8003bb6:	6823      	ldr	r3, [r4, #0]
 8003bb8:	4a2d      	ldr	r2, [pc, #180]	; (8003c70 <HAL_SD_ReadBlocks+0x204>)
 8003bba:	639a      	str	r2, [r3, #56]	; 0x38
 8003bbc:	6ba3      	ldr	r3, [r4, #56]	; 0x38
 8003bbe:	f043 4300 	orr.w	r3, r3, #2147483648	; 0x80000000
 8003bc2:	63a3      	str	r3, [r4, #56]	; 0x38
 8003bc4:	2301      	movs	r3, #1
 8003bc6:	f884 3034 	strb.w	r3, [r4, #52]	; 0x34
 8003bca:	2300      	movs	r3, #0
 8003bcc:	6323      	str	r3, [r4, #48]	; 0x30
 8003bce:	2703      	movs	r7, #3
 8003bd0:	e76e      	b.n	8003ab0 <HAL_SD_ReadBlocks+0x44>
 8003bd2:	6b5a      	ldr	r2, [r3, #52]	; 0x34
 8003bd4:	f012 0202 	ands.w	r2, r2, #2
 8003bd8:	d00a      	beq.n	8003bf0 <HAL_SD_ReadBlocks+0x184>
 8003bda:	4a25      	ldr	r2, [pc, #148]	; (8003c70 <HAL_SD_ReadBlocks+0x204>)
 8003bdc:	639a      	str	r2, [r3, #56]	; 0x38
 8003bde:	6ba3      	ldr	r3, [r4, #56]	; 0x38
 8003be0:	f043 0302 	orr.w	r3, r3, #2
 8003be4:	63a3      	str	r3, [r4, #56]	; 0x38
 8003be6:	2301      	movs	r3, #1
 8003be8:	f884 3034 	strb.w	r3, [r4, #52]	; 0x34
 8003bec:	6321      	str	r1, [r4, #48]	; 0x30
 8003bee:	e75f      	b.n	8003ab0 <HAL_SD_ReadBlocks+0x44>
 8003bf0:	6b59      	ldr	r1, [r3, #52]	; 0x34
 8003bf2:	0689      	lsls	r1, r1, #26
 8003bf4:	d529      	bpl.n	8003c4a <HAL_SD_ReadBlocks+0x1de>
 8003bf6:	491e      	ldr	r1, [pc, #120]	; (8003c70 <HAL_SD_ReadBlocks+0x204>)
 8003bf8:	6399      	str	r1, [r3, #56]	; 0x38
 8003bfa:	6ba3      	ldr	r3, [r4, #56]	; 0x38
 8003bfc:	f043 0320 	orr.w	r3, r3, #32
 8003c00:	63a3      	str	r3, [r4, #56]	; 0x38
 8003c02:	2301      	movs	r3, #1
 8003c04:	f884 3034 	strb.w	r3, [r4, #52]	; 0x34
 8003c08:	6322      	str	r2, [r4, #48]	; 0x30
 8003c0a:	e751      	b.n	8003ab0 <HAL_SD_ReadBlocks+0x44>
 8003c0c:	f000 fe74 	bl	80048f8 <SDIO_ReadFIFO>
 8003c10:	0a03      	lsrs	r3, r0, #8
 8003c12:	f805 3c03 	strb.w	r3, [r5, #-3]
 8003c16:	0c03      	lsrs	r3, r0, #16
 8003c18:	f805 3c02 	strb.w	r3, [r5, #-2]
 8003c1c:	0e03      	lsrs	r3, r0, #24
 8003c1e:	f805 3c01 	strb.w	r3, [r5, #-1]
 8003c22:	f805 0c04 	strb.w	r0, [r5, #-4]
 8003c26:	f7fe fa49 	bl	80020bc <HAL_GetTick>
 8003c2a:	9b12      	ldr	r3, [sp, #72]	; 0x48
 8003c2c:	eba0 0008 	sub.w	r0, r0, r8
 8003c30:	4298      	cmp	r0, r3
 8003c32:	f1a6 0604 	sub.w	r6, r6, #4
 8003c36:	f105 0504 	add.w	r5, r5, #4
 8003c3a:	d307      	bcc.n	8003c4c <HAL_SD_ReadBlocks+0x1e0>
 8003c3c:	6823      	ldr	r3, [r4, #0]
 8003c3e:	4a0c      	ldr	r2, [pc, #48]	; (8003c70 <HAL_SD_ReadBlocks+0x204>)
 8003c40:	639a      	str	r2, [r3, #56]	; 0x38
 8003c42:	6ba3      	ldr	r3, [r4, #56]	; 0x38
 8003c44:	f043 4300 	orr.w	r3, r3, #2147483648	; 0x80000000
 8003c48:	e78f      	b.n	8003b6a <HAL_SD_ReadBlocks+0xfe>
 8003c4a:	3504      	adds	r5, #4
 8003c4c:	6820      	ldr	r0, [r4, #0]
 8003c4e:	6b43      	ldr	r3, [r0, #52]	; 0x34
 8003c50:	029b      	lsls	r3, r3, #10
 8003c52:	d501      	bpl.n	8003c58 <HAL_SD_ReadBlocks+0x1ec>
 8003c54:	2e00      	cmp	r6, #0
 8003c56:	d1d9      	bne.n	8003c0c <HAL_SD_ReadBlocks+0x1a0>
 8003c58:	f240 533a 	movw	r3, #1338	; 0x53a
 8003c5c:	6383      	str	r3, [r0, #56]	; 0x38
 8003c5e:	2301      	movs	r3, #1
 8003c60:	f884 3034 	strb.w	r3, [r4, #52]	; 0x34
 8003c64:	2700      	movs	r7, #0
 8003c66:	e723      	b.n	8003ab0 <HAL_SD_ReadBlocks+0x44>
 8003c68:	6ba3      	ldr	r3, [r4, #56]	; 0x38
 8003c6a:	f043 5300 	orr.w	r3, r3, #536870912	; 0x20000000
 8003c6e:	e70b      	b.n	8003a88 <HAL_SD_ReadBlocks+0x1c>
 8003c70:	004005ff 	.word	0x004005ff

08003c74 <HAL_SD_WriteBlocks>:
 8003c74:	e92d 4ff0 	stmdb	sp!, {r4, r5, r6, r7, r8, r9, sl, fp, lr}
 8003c78:	b089      	sub	sp, #36	; 0x24
 8003c7a:	4604      	mov	r4, r0
 8003c7c:	460d      	mov	r5, r1
 8003c7e:	4692      	mov	sl, r2
 8003c80:	461f      	mov	r7, r3
 8003c82:	f7fe fa1b 	bl	80020bc <HAL_GetTick>
 8003c86:	4681      	mov	r9, r0
 8003c88:	b935      	cbnz	r5, 8003c98 <HAL_SD_WriteBlocks+0x24>
 8003c8a:	6ba3      	ldr	r3, [r4, #56]	; 0x38
 8003c8c:	f043 6300 	orr.w	r3, r3, #134217728	; 0x8000000
 8003c90:	63a3      	str	r3, [r4, #56]	; 0x38
 8003c92:	f04f 0801 	mov.w	r8, #1
 8003c96:	e011      	b.n	8003cbc <HAL_SD_WriteBlocks+0x48>
 8003c98:	f894 3034 	ldrb.w	r3, [r4, #52]	; 0x34
 8003c9c:	2b01      	cmp	r3, #1
 8003c9e:	fa5f f883 	uxtb.w	r8, r3
 8003ca2:	f040 80b1 	bne.w	8003e08 <HAL_SD_WriteBlocks+0x194>
 8003ca6:	6de2      	ldr	r2, [r4, #92]	; 0x5c
 8003ca8:	eb0a 0307 	add.w	r3, sl, r7
 8003cac:	2100      	movs	r1, #0
 8003cae:	4293      	cmp	r3, r2
 8003cb0:	63a1      	str	r1, [r4, #56]	; 0x38
 8003cb2:	d907      	bls.n	8003cc4 <HAL_SD_WriteBlocks+0x50>
 8003cb4:	6ba3      	ldr	r3, [r4, #56]	; 0x38
 8003cb6:	f043 7300 	orr.w	r3, r3, #33554432	; 0x2000000
 8003cba:	63a3      	str	r3, [r4, #56]	; 0x38
 8003cbc:	4640      	mov	r0, r8
 8003cbe:	b009      	add	sp, #36	; 0x24
 8003cc0:	e8bd 8ff0 	ldmia.w	sp!, {r4, r5, r6, r7, r8, r9, sl, fp, pc}
 8003cc4:	2303      	movs	r3, #3
 8003cc6:	f884 3034 	strb.w	r3, [r4, #52]	; 0x34
 8003cca:	6c63      	ldr	r3, [r4, #68]	; 0x44
 8003ccc:	6820      	ldr	r0, [r4, #0]
 8003cce:	2b01      	cmp	r3, #1
 8003cd0:	f04f 33ff 	mov.w	r3, #4294967295
 8003cd4:	9302      	str	r3, [sp, #8]
 8003cd6:	ea4f 2347 	mov.w	r3, r7, lsl #9
 8003cda:	62c1      	str	r1, [r0, #44]	; 0x2c
 8003cdc:	9303      	str	r3, [sp, #12]
 8003cde:	f04f 0190 	mov.w	r1, #144	; 0x90
 8003ce2:	f04f 0300 	mov.w	r3, #0
 8003ce6:	e9cd 1304 	strd	r1, r3, [sp, #16]
 8003cea:	9306      	str	r3, [sp, #24]
 8003cec:	a902      	add	r1, sp, #8
 8003cee:	f04f 0301 	mov.w	r3, #1
 8003cf2:	bf18      	it	ne
 8003cf4:	ea4f 2a4a 	movne.w	sl, sl, lsl #9
 8003cf8:	9307      	str	r3, [sp, #28]
 8003cfa:	f000 fe27 	bl	800494c <SDIO_ConfigData>
 8003cfe:	2f01      	cmp	r7, #1
 8003d00:	d912      	bls.n	8003d28 <HAL_SD_WriteBlocks+0xb4>
 8003d02:	2320      	movs	r3, #32
 8003d04:	6820      	ldr	r0, [r4, #0]
 8003d06:	6323      	str	r3, [r4, #48]	; 0x30
 8003d08:	4651      	mov	r1, sl
 8003d0a:	f000 fe92 	bl	8004a32 <SDMMC_CmdWriteMultiBlock>
 8003d0e:	b190      	cbz	r0, 8003d36 <HAL_SD_WriteBlocks+0xc2>
 8003d10:	6823      	ldr	r3, [r4, #0]
 8003d12:	4a3f      	ldr	r2, [pc, #252]	; (8003e10 <HAL_SD_WriteBlocks+0x19c>)
 8003d14:	639a      	str	r2, [r3, #56]	; 0x38
 8003d16:	6ba3      	ldr	r3, [r4, #56]	; 0x38
 8003d18:	4318      	orrs	r0, r3
 8003d1a:	63a0      	str	r0, [r4, #56]	; 0x38
 8003d1c:	2301      	movs	r3, #1
 8003d1e:	f884 3034 	strb.w	r3, [r4, #52]	; 0x34
 8003d22:	2300      	movs	r3, #0
 8003d24:	6323      	str	r3, [r4, #48]	; 0x30
 8003d26:	e7c9      	b.n	8003cbc <HAL_SD_WriteBlocks+0x48>
 8003d28:	2310      	movs	r3, #16
 8003d2a:	6820      	ldr	r0, [r4, #0]
 8003d2c:	6323      	str	r3, [r4, #48]	; 0x30
 8003d2e:	4651      	mov	r1, sl
 8003d30:	f000 fe67 	bl	8004a02 <SDMMC_CmdWriteSingleBlock>
 8003d34:	e7eb      	b.n	8003d0e <HAL_SD_WriteBlocks+0x9a>
 8003d36:	9e03      	ldr	r6, [sp, #12]
 8003d38:	f240 3a1a 	movw	sl, #794	; 0x31a
 8003d3c:	6820      	ldr	r0, [r4, #0]
 8003d3e:	6b43      	ldr	r3, [r0, #52]	; 0x34
 8003d40:	ea13 0f0a 	tst.w	r3, sl
 8003d44:	6b43      	ldr	r3, [r0, #52]	; 0x34
 8003d46:	d016      	beq.n	8003d76 <HAL_SD_WriteBlocks+0x102>
 8003d48:	05db      	lsls	r3, r3, #23
 8003d4a:	d508      	bpl.n	8003d5e <HAL_SD_WriteBlocks+0xea>
 8003d4c:	2f01      	cmp	r7, #1
 8003d4e:	d906      	bls.n	8003d5e <HAL_SD_WriteBlocks+0xea>
 8003d50:	6c63      	ldr	r3, [r4, #68]	; 0x44
 8003d52:	2b03      	cmp	r3, #3
 8003d54:	d003      	beq.n	8003d5e <HAL_SD_WriteBlocks+0xea>
 8003d56:	f000 fe85 	bl	8004a64 <SDMMC_CmdStopTransfer>
 8003d5a:	2800      	cmp	r0, #0
 8003d5c:	d1d8      	bne.n	8003d10 <HAL_SD_WriteBlocks+0x9c>
 8003d5e:	6823      	ldr	r3, [r4, #0]
 8003d60:	6b58      	ldr	r0, [r3, #52]	; 0x34
 8003d62:	f010 0008 	ands.w	r0, r0, #8
 8003d66:	d029      	beq.n	8003dbc <HAL_SD_WriteBlocks+0x148>
 8003d68:	4a29      	ldr	r2, [pc, #164]	; (8003e10 <HAL_SD_WriteBlocks+0x19c>)
 8003d6a:	639a      	str	r2, [r3, #56]	; 0x38
 8003d6c:	6ba3      	ldr	r3, [r4, #56]	; 0x38
 8003d6e:	f043 0308 	orr.w	r3, r3, #8
 8003d72:	63a3      	str	r3, [r4, #56]	; 0x38
 8003d74:	e7d2      	b.n	8003d1c <HAL_SD_WriteBlocks+0xa8>
 8003d76:	045a      	lsls	r2, r3, #17
 8003d78:	d50c      	bpl.n	8003d94 <HAL_SD_WriteBlocks+0x120>
 8003d7a:	b15e      	cbz	r6, 8003d94 <HAL_SD_WriteBlocks+0x120>
 8003d7c:	f105 0b20 	add.w	fp, r5, #32
 8003d80:	f855 2b04 	ldr.w	r2, [r5], #4
 8003d84:	6820      	ldr	r0, [r4, #0]
 8003d86:	9201      	str	r2, [sp, #4]
 8003d88:	a901      	add	r1, sp, #4
 8003d8a:	f000 fdb8 	bl	80048fe <SDIO_WriteFIFO>
 8003d8e:	45ab      	cmp	fp, r5
 8003d90:	d1f6      	bne.n	8003d80 <HAL_SD_WriteBlocks+0x10c>
 8003d92:	3e20      	subs	r6, #32
 8003d94:	f7fe f992 	bl	80020bc <HAL_GetTick>
 8003d98:	9b12      	ldr	r3, [sp, #72]	; 0x48
 8003d9a:	eba0 0009 	sub.w	r0, r0, r9
 8003d9e:	4298      	cmp	r0, r3
 8003da0:	d3cc      	bcc.n	8003d3c <HAL_SD_WriteBlocks+0xc8>
 8003da2:	6823      	ldr	r3, [r4, #0]
 8003da4:	4a1a      	ldr	r2, [pc, #104]	; (8003e10 <HAL_SD_WriteBlocks+0x19c>)
 8003da6:	639a      	str	r2, [r3, #56]	; 0x38
 8003da8:	6ba3      	ldr	r3, [r4, #56]	; 0x38
 8003daa:	63a3      	str	r3, [r4, #56]	; 0x38
 8003dac:	2301      	movs	r3, #1
 8003dae:	f884 3034 	strb.w	r3, [r4, #52]	; 0x34
 8003db2:	2300      	movs	r3, #0
 8003db4:	6323      	str	r3, [r4, #48]	; 0x30
 8003db6:	f04f 0803 	mov.w	r8, #3
 8003dba:	e77f      	b.n	8003cbc <HAL_SD_WriteBlocks+0x48>
 8003dbc:	6b59      	ldr	r1, [r3, #52]	; 0x34
 8003dbe:	f011 0102 	ands.w	r1, r1, #2
 8003dc2:	d00a      	beq.n	8003dda <HAL_SD_WriteBlocks+0x166>
 8003dc4:	4a12      	ldr	r2, [pc, #72]	; (8003e10 <HAL_SD_WriteBlocks+0x19c>)
 8003dc6:	639a      	str	r2, [r3, #56]	; 0x38
 8003dc8:	6ba3      	ldr	r3, [r4, #56]	; 0x38
 8003dca:	f043 0302 	orr.w	r3, r3, #2
 8003dce:	63a3      	str	r3, [r4, #56]	; 0x38
 8003dd0:	2301      	movs	r3, #1
 8003dd2:	f884 3034 	strb.w	r3, [r4, #52]	; 0x34
 8003dd6:	6320      	str	r0, [r4, #48]	; 0x30
 8003dd8:	e770      	b.n	8003cbc <HAL_SD_WriteBlocks+0x48>
 8003dda:	6b5a      	ldr	r2, [r3, #52]	; 0x34
 8003ddc:	f012 0210 	ands.w	r2, r2, #16
 8003de0:	d00a      	beq.n	8003df8 <HAL_SD_WriteBlocks+0x184>
 8003de2:	4a0b      	ldr	r2, [pc, #44]	; (8003e10 <HAL_SD_WriteBlocks+0x19c>)
 8003de4:	639a      	str	r2, [r3, #56]	; 0x38
 8003de6:	6ba3      	ldr	r3, [r4, #56]	; 0x38
 8003de8:	f043 0310 	orr.w	r3, r3, #16
 8003dec:	63a3      	str	r3, [r4, #56]	; 0x38
 8003dee:	2301      	movs	r3, #1
 8003df0:	f884 3034 	strb.w	r3, [r4, #52]	; 0x34
 8003df4:	6321      	str	r1, [r4, #48]	; 0x30
 8003df6:	e761      	b.n	8003cbc <HAL_SD_WriteBlocks+0x48>
 8003df8:	f240 513a 	movw	r1, #1338	; 0x53a
 8003dfc:	6399      	str	r1, [r3, #56]	; 0x38
 8003dfe:	2301      	movs	r3, #1
 8003e00:	f884 3034 	strb.w	r3, [r4, #52]	; 0x34
 8003e04:	4690      	mov	r8, r2
 8003e06:	e759      	b.n	8003cbc <HAL_SD_WriteBlocks+0x48>
 8003e08:	6ba3      	ldr	r3, [r4, #56]	; 0x38
 8003e0a:	f043 5300 	orr.w	r3, r3, #536870912	; 0x20000000
 8003e0e:	e73f      	b.n	8003c90 <HAL_SD_WriteBlocks+0x1c>
 8003e10:	004005ff 	.word	0x004005ff

08003e14 <HAL_SD_GetCardCSD>:
 8003e14:	6e43      	ldr	r3, [r0, #100]	; 0x64
 8003e16:	0f9a      	lsrs	r2, r3, #30
 8003e18:	700a      	strb	r2, [r1, #0]
 8003e1a:	f3c3 6283 	ubfx	r2, r3, #26, #4
 8003e1e:	704a      	strb	r2, [r1, #1]
 8003e20:	f3c3 6201 	ubfx	r2, r3, #24, #2
 8003e24:	708a      	strb	r2, [r1, #2]
 8003e26:	f3c3 4207 	ubfx	r2, r3, #16, #8
 8003e2a:	70ca      	strb	r2, [r1, #3]
 8003e2c:	f3c3 2207 	ubfx	r2, r3, #8, #8
 8003e30:	b2db      	uxtb	r3, r3
 8003e32:	710a      	strb	r2, [r1, #4]
 8003e34:	714b      	strb	r3, [r1, #5]
 8003e36:	6e83      	ldr	r3, [r0, #104]	; 0x68
 8003e38:	0d1a      	lsrs	r2, r3, #20
 8003e3a:	80ca      	strh	r2, [r1, #6]
 8003e3c:	f3c3 4203 	ubfx	r2, r3, #16, #4
 8003e40:	720a      	strb	r2, [r1, #8]
 8003e42:	f3c3 32c0 	ubfx	r2, r3, #15, #1
 8003e46:	724a      	strb	r2, [r1, #9]
 8003e48:	f3c3 3280 	ubfx	r2, r3, #14, #1
 8003e4c:	728a      	strb	r2, [r1, #10]
 8003e4e:	f3c3 3240 	ubfx	r2, r3, #13, #1
 8003e52:	72ca      	strb	r2, [r1, #11]
 8003e54:	f3c3 3200 	ubfx	r2, r3, #12, #1
 8003e58:	730a      	strb	r2, [r1, #12]
 8003e5a:	2200      	movs	r2, #0
 8003e5c:	734a      	strb	r2, [r1, #13]
 8003e5e:	6c42      	ldr	r2, [r0, #68]	; 0x44
 8003e60:	b510      	push	{r4, lr}
 8003e62:	2a00      	cmp	r2, #0
 8003e64:	d16b      	bne.n	8003f3e <HAL_SD_GetCardCSD+0x12a>
 8003e66:	6ec2      	ldr	r2, [r0, #108]	; 0x6c
 8003e68:	f640 74fc 	movw	r4, #4092	; 0xffc
 8003e6c:	ea04 0383 	and.w	r3, r4, r3, lsl #2
 8003e70:	ea43 7392 	orr.w	r3, r3, r2, lsr #30
 8003e74:	610b      	str	r3, [r1, #16]
 8003e76:	f3c2 63c2 	ubfx	r3, r2, #27, #3
 8003e7a:	750b      	strb	r3, [r1, #20]
 8003e7c:	f3c2 6302 	ubfx	r3, r2, #24, #3
 8003e80:	754b      	strb	r3, [r1, #21]
 8003e82:	f3c2 5342 	ubfx	r3, r2, #21, #3
 8003e86:	758b      	strb	r3, [r1, #22]
 8003e88:	f3c2 4382 	ubfx	r3, r2, #18, #3
 8003e8c:	f3c2 32c2 	ubfx	r2, r2, #15, #3
 8003e90:	75cb      	strb	r3, [r1, #23]
 8003e92:	760a      	strb	r2, [r1, #24]
 8003e94:	690b      	ldr	r3, [r1, #16]
 8003e96:	7e0a      	ldrb	r2, [r1, #24]
 8003e98:	f002 0207 	and.w	r2, r2, #7
 8003e9c:	3202      	adds	r2, #2
 8003e9e:	3301      	adds	r3, #1
 8003ea0:	4093      	lsls	r3, r2
 8003ea2:	6543      	str	r3, [r0, #84]	; 0x54
 8003ea4:	7a0a      	ldrb	r2, [r1, #8]
 8003ea6:	f002 040f 	and.w	r4, r2, #15
 8003eaa:	2201      	movs	r2, #1
 8003eac:	40a2      	lsls	r2, r4
 8003eae:	6582      	str	r2, [r0, #88]	; 0x58
 8003eb0:	0a52      	lsrs	r2, r2, #9
 8003eb2:	4353      	muls	r3, r2
 8003eb4:	65c3      	str	r3, [r0, #92]	; 0x5c
 8003eb6:	f44f 7300 	mov.w	r3, #512	; 0x200
 8003eba:	6603      	str	r3, [r0, #96]	; 0x60
 8003ebc:	6ec3      	ldr	r3, [r0, #108]	; 0x6c
 8003ebe:	f3c3 3280 	ubfx	r2, r3, #14, #1
 8003ec2:	764a      	strb	r2, [r1, #25]
 8003ec4:	f3c3 12c6 	ubfx	r2, r3, #7, #7
 8003ec8:	f003 037f 	and.w	r3, r3, #127	; 0x7f
 8003ecc:	768a      	strb	r2, [r1, #26]
 8003ece:	76cb      	strb	r3, [r1, #27]
 8003ed0:	6f03      	ldr	r3, [r0, #112]	; 0x70
 8003ed2:	0fda      	lsrs	r2, r3, #31
 8003ed4:	770a      	strb	r2, [r1, #28]
 8003ed6:	f3c3 7241 	ubfx	r2, r3, #29, #2
 8003eda:	774a      	strb	r2, [r1, #29]
 8003edc:	f3c3 6282 	ubfx	r2, r3, #26, #3
 8003ee0:	778a      	strb	r2, [r1, #30]
 8003ee2:	f3c3 5283 	ubfx	r2, r3, #22, #4
 8003ee6:	77ca      	strb	r2, [r1, #31]
 8003ee8:	f3c3 5240 	ubfx	r2, r3, #21, #1
 8003eec:	f881 2020 	strb.w	r2, [r1, #32]
 8003ef0:	2000      	movs	r0, #0
 8003ef2:	f3c3 4200 	ubfx	r2, r3, #16, #1
 8003ef6:	f881 0021 	strb.w	r0, [r1, #33]	; 0x21
 8003efa:	f881 2022 	strb.w	r2, [r1, #34]	; 0x22
 8003efe:	f3c3 32c0 	ubfx	r2, r3, #15, #1
 8003f02:	f881 2023 	strb.w	r2, [r1, #35]	; 0x23
 8003f06:	f3c3 3280 	ubfx	r2, r3, #14, #1
 8003f0a:	f881 2024 	strb.w	r2, [r1, #36]	; 0x24
 8003f0e:	f3c3 3240 	ubfx	r2, r3, #13, #1
 8003f12:	f881 2025 	strb.w	r2, [r1, #37]	; 0x25
 8003f16:	f3c3 3200 	ubfx	r2, r3, #12, #1
 8003f1a:	f881 2026 	strb.w	r2, [r1, #38]	; 0x26
 8003f1e:	f3c3 2281 	ubfx	r2, r3, #10, #2
 8003f22:	f881 2027 	strb.w	r2, [r1, #39]	; 0x27
 8003f26:	f3c3 2201 	ubfx	r2, r3, #8, #2
 8003f2a:	f3c3 0346 	ubfx	r3, r3, #1, #7
 8003f2e:	f881 2028 	strb.w	r2, [r1, #40]	; 0x28
 8003f32:	f881 3029 	strb.w	r3, [r1, #41]	; 0x29
 8003f36:	2301      	movs	r3, #1
 8003f38:	f881 302a 	strb.w	r3, [r1, #42]	; 0x2a
 8003f3c:	bd10      	pop	{r4, pc}
 8003f3e:	2a01      	cmp	r2, #1
 8003f40:	d10f      	bne.n	8003f62 <HAL_SD_GetCardCSD+0x14e>
 8003f42:	f8b0 206e 	ldrh.w	r2, [r0, #110]	; 0x6e
 8003f46:	041b      	lsls	r3, r3, #16
 8003f48:	f403 137c 	and.w	r3, r3, #4128768	; 0x3f0000
 8003f4c:	4313      	orrs	r3, r2
 8003f4e:	610b      	str	r3, [r1, #16]
 8003f50:	690b      	ldr	r3, [r1, #16]
 8003f52:	3301      	adds	r3, #1
 8003f54:	029b      	lsls	r3, r3, #10
 8003f56:	6543      	str	r3, [r0, #84]	; 0x54
 8003f58:	65c3      	str	r3, [r0, #92]	; 0x5c
 8003f5a:	f44f 7300 	mov.w	r3, #512	; 0x200
 8003f5e:	6583      	str	r3, [r0, #88]	; 0x58
 8003f60:	e7ab      	b.n	8003eba <HAL_SD_GetCardCSD+0xa6>
 8003f62:	6803      	ldr	r3, [r0, #0]
 8003f64:	4a05      	ldr	r2, [pc, #20]	; (8003f7c <HAL_SD_GetCardCSD+0x168>)
 8003f66:	639a      	str	r2, [r3, #56]	; 0x38
 8003f68:	6b83      	ldr	r3, [r0, #56]	; 0x38
 8003f6a:	f043 5380 	orr.w	r3, r3, #268435456	; 0x10000000
 8003f6e:	6383      	str	r3, [r0, #56]	; 0x38
 8003f70:	2301      	movs	r3, #1
 8003f72:	f880 3034 	strb.w	r3, [r0, #52]	; 0x34
 8003f76:	4618      	mov	r0, r3
 8003f78:	e7e0      	b.n	8003f3c <HAL_SD_GetCardCSD+0x128>
 8003f7a:	bf00      	nop
 8003f7c:	004005ff 	.word	0x004005ff

08003f80 <HAL_SD_InitCard>:
 8003f80:	e92d 41f0 	stmdb	sp!, {r4, r5, r6, r7, r8, lr}
 8003f84:	2300      	movs	r3, #0
 8003f86:	b098      	sub	sp, #96	; 0x60
 8003f88:	e9cd 3309 	strd	r3, r3, [sp, #36]	; 0x24
 8003f8c:	e9cd 3307 	strd	r3, r3, [sp, #28]
 8003f90:	930b      	str	r3, [sp, #44]	; 0x2c
 8003f92:	2376      	movs	r3, #118	; 0x76
 8003f94:	930c      	str	r3, [sp, #48]	; 0x30
 8003f96:	ab0a      	add	r3, sp, #40	; 0x28
 8003f98:	4604      	mov	r4, r0
 8003f9a:	e893 0007 	ldmia.w	r3, {r0, r1, r2}
 8003f9e:	e88d 0007 	stmia.w	sp, {r0, r1, r2}
 8003fa2:	ab07      	add	r3, sp, #28
 8003fa4:	cb0e      	ldmia	r3, {r1, r2, r3}
 8003fa6:	6820      	ldr	r0, [r4, #0]
 8003fa8:	f000 fc8a 	bl	80048c0 <SDIO_Init>
 8003fac:	4605      	mov	r5, r0
 8003fae:	bb28      	cbnz	r0, 8003ffc <HAL_SD_InitCard+0x7c>
 8003fb0:	4f6f      	ldr	r7, [pc, #444]	; (8004170 <HAL_SD_InitCard+0x1f0>)
 8003fb2:	2601      	movs	r6, #1
 8003fb4:	6038      	str	r0, [r7, #0]
 8003fb6:	6820      	ldr	r0, [r4, #0]
 8003fb8:	f000 fca6 	bl	8004908 <SDIO_PowerState_ON>
 8003fbc:	603e      	str	r6, [r7, #0]
 8003fbe:	6820      	ldr	r0, [r4, #0]
 8003fc0:	9506      	str	r5, [sp, #24]
 8003fc2:	f000 fd81 	bl	8004ac8 <SDMMC_CmdGoIdleState>
 8003fc6:	4605      	mov	r5, r0
 8003fc8:	b990      	cbnz	r0, 8003ff0 <HAL_SD_InitCard+0x70>
 8003fca:	6820      	ldr	r0, [r4, #0]
 8003fcc:	f000 fda2 	bl	8004b14 <SDMMC_CmdOperCond>
 8003fd0:	b130      	cbz	r0, 8003fe0 <HAL_SD_InitCard+0x60>
 8003fd2:	6820      	ldr	r0, [r4, #0]
 8003fd4:	64a5      	str	r5, [r4, #72]	; 0x48
 8003fd6:	f000 fd77 	bl	8004ac8 <SDMMC_CmdGoIdleState>
 8003fda:	b188      	cbz	r0, 8004000 <HAL_SD_InitCard+0x80>
 8003fdc:	4605      	mov	r5, r0
 8003fde:	e007      	b.n	8003ff0 <HAL_SD_InitCard+0x70>
 8003fe0:	64a6      	str	r6, [r4, #72]	; 0x48
 8003fe2:	6820      	ldr	r0, [r4, #0]
 8003fe4:	2100      	movs	r1, #0
 8003fe6:	f000 fdd1 	bl	8004b8c <SDMMC_CmdAppCommand>
 8003fea:	b160      	cbz	r0, 8004006 <HAL_SD_InitCard+0x86>
 8003fec:	f04f 5580 	mov.w	r5, #268435456	; 0x10000000
 8003ff0:	2001      	movs	r0, #1
 8003ff2:	f884 0034 	strb.w	r0, [r4, #52]	; 0x34
 8003ff6:	6ba3      	ldr	r3, [r4, #56]	; 0x38
 8003ff8:	432b      	orrs	r3, r5
 8003ffa:	63a3      	str	r3, [r4, #56]	; 0x38
 8003ffc:	2501      	movs	r5, #1
 8003ffe:	e0b3      	b.n	8004168 <HAL_SD_InitCard+0x1e8>
 8004000:	6ca3      	ldr	r3, [r4, #72]	; 0x48
 8004002:	2b01      	cmp	r3, #1
 8004004:	d0ed      	beq.n	8003fe2 <HAL_SD_InitCard+0x62>
 8004006:	f64f 76fe 	movw	r6, #65534	; 0xfffe
 800400a:	f8df 816c 	ldr.w	r8, [pc, #364]	; 8004178 <HAL_SD_InitCard+0x1f8>
 800400e:	2100      	movs	r1, #0
 8004010:	4637      	mov	r7, r6
 8004012:	e014      	b.n	800403e <HAL_SD_InitCard+0xbe>
 8004014:	6820      	ldr	r0, [r4, #0]
 8004016:	f000 fdb9 	bl	8004b8c <SDMMC_CmdAppCommand>
 800401a:	4605      	mov	r5, r0
 800401c:	2800      	cmp	r0, #0
 800401e:	d1e7      	bne.n	8003ff0 <HAL_SD_InitCard+0x70>
 8004020:	6820      	ldr	r0, [r4, #0]
 8004022:	4641      	mov	r1, r8
 8004024:	f000 fdca 	bl	8004bbc <SDMMC_CmdAppOperCommand>
 8004028:	2800      	cmp	r0, #0
 800402a:	d1df      	bne.n	8003fec <HAL_SD_InitCard+0x6c>
 800402c:	4629      	mov	r1, r5
 800402e:	6820      	ldr	r0, [r4, #0]
 8004030:	f000 fc89 	bl	8004946 <SDIO_GetResponse>
 8004034:	9b06      	ldr	r3, [sp, #24]
 8004036:	3301      	adds	r3, #1
 8004038:	4605      	mov	r5, r0
 800403a:	0fc1      	lsrs	r1, r0, #31
 800403c:	9306      	str	r3, [sp, #24]
 800403e:	9b06      	ldr	r3, [sp, #24]
 8004040:	42b3      	cmp	r3, r6
 8004042:	d801      	bhi.n	8004048 <HAL_SD_InitCard+0xc8>
 8004044:	2900      	cmp	r1, #0
 8004046:	d0e5      	beq.n	8004014 <HAL_SD_InitCard+0x94>
 8004048:	9b06      	ldr	r3, [sp, #24]
 800404a:	42bb      	cmp	r3, r7
 800404c:	d80c      	bhi.n	8004068 <HAL_SD_InitCard+0xe8>
 800404e:	f3c5 7580 	ubfx	r5, r5, #30, #1
 8004052:	2301      	movs	r3, #1
 8004054:	6820      	ldr	r0, [r4, #0]
 8004056:	6465      	str	r5, [r4, #68]	; 0x44
 8004058:	f8ad 3016 	strh.w	r3, [sp, #22]
 800405c:	f000 fc5c 	bl	8004918 <SDIO_GetPowerState>
 8004060:	b928      	cbnz	r0, 800406e <HAL_SD_InitCard+0xee>
 8004062:	f04f 6080 	mov.w	r0, #67108864	; 0x4000000
 8004066:	e079      	b.n	800415c <HAL_SD_InitCard+0x1dc>
 8004068:	f04f 7580 	mov.w	r5, #16777216	; 0x1000000
 800406c:	e7c0      	b.n	8003ff0 <HAL_SD_InitCard+0x70>
 800406e:	6c63      	ldr	r3, [r4, #68]	; 0x44
 8004070:	2b03      	cmp	r3, #3
 8004072:	d043      	beq.n	80040fc <HAL_SD_InitCard+0x17c>
 8004074:	6820      	ldr	r0, [r4, #0]
 8004076:	f000 fdea 	bl	8004c4e <SDMMC_CmdSendCID>
 800407a:	2800      	cmp	r0, #0
 800407c:	d16e      	bne.n	800415c <HAL_SD_InitCard+0x1dc>
 800407e:	4601      	mov	r1, r0
 8004080:	6820      	ldr	r0, [r4, #0]
 8004082:	f000 fc60 	bl	8004946 <SDIO_GetResponse>
 8004086:	2104      	movs	r1, #4
 8004088:	6760      	str	r0, [r4, #116]	; 0x74
 800408a:	6820      	ldr	r0, [r4, #0]
 800408c:	f000 fc5b 	bl	8004946 <SDIO_GetResponse>
 8004090:	2108      	movs	r1, #8
 8004092:	67a0      	str	r0, [r4, #120]	; 0x78
 8004094:	6820      	ldr	r0, [r4, #0]
 8004096:	f000 fc56 	bl	8004946 <SDIO_GetResponse>
 800409a:	210c      	movs	r1, #12
 800409c:	67e0      	str	r0, [r4, #124]	; 0x7c
 800409e:	6820      	ldr	r0, [r4, #0]
 80040a0:	f000 fc51 	bl	8004946 <SDIO_GetResponse>
 80040a4:	6c63      	ldr	r3, [r4, #68]	; 0x44
 80040a6:	f8c4 0080 	str.w	r0, [r4, #128]	; 0x80
 80040aa:	2b03      	cmp	r3, #3
 80040ac:	d026      	beq.n	80040fc <HAL_SD_InitCard+0x17c>
 80040ae:	6820      	ldr	r0, [r4, #0]
 80040b0:	f10d 0116 	add.w	r1, sp, #22
 80040b4:	f000 fdf6 	bl	8004ca4 <SDMMC_CmdSetRelAdd>
 80040b8:	2800      	cmp	r0, #0
 80040ba:	d14f      	bne.n	800415c <HAL_SD_InitCard+0x1dc>
 80040bc:	6c63      	ldr	r3, [r4, #68]	; 0x44
 80040be:	6820      	ldr	r0, [r4, #0]
 80040c0:	2b03      	cmp	r3, #3
 80040c2:	d01b      	beq.n	80040fc <HAL_SD_InitCard+0x17c>
 80040c4:	f8bd 1016 	ldrh.w	r1, [sp, #22]
 80040c8:	6521      	str	r1, [r4, #80]	; 0x50
 80040ca:	0409      	lsls	r1, r1, #16
 80040cc:	f000 fdd4 	bl	8004c78 <SDMMC_CmdSendCSD>
 80040d0:	2800      	cmp	r0, #0
 80040d2:	d143      	bne.n	800415c <HAL_SD_InitCard+0x1dc>
 80040d4:	4601      	mov	r1, r0
 80040d6:	6820      	ldr	r0, [r4, #0]
 80040d8:	f000 fc35 	bl	8004946 <SDIO_GetResponse>
 80040dc:	2104      	movs	r1, #4
 80040de:	6660      	str	r0, [r4, #100]	; 0x64
 80040e0:	6820      	ldr	r0, [r4, #0]
 80040e2:	f000 fc30 	bl	8004946 <SDIO_GetResponse>
 80040e6:	2108      	movs	r1, #8
 80040e8:	66a0      	str	r0, [r4, #104]	; 0x68
 80040ea:	6820      	ldr	r0, [r4, #0]
 80040ec:	f000 fc2b 	bl	8004946 <SDIO_GetResponse>
 80040f0:	210c      	movs	r1, #12
 80040f2:	66e0      	str	r0, [r4, #108]	; 0x6c
 80040f4:	6820      	ldr	r0, [r4, #0]
 80040f6:	f000 fc26 	bl	8004946 <SDIO_GetResponse>
 80040fa:	6720      	str	r0, [r4, #112]	; 0x70
 80040fc:	2104      	movs	r1, #4
 80040fe:	6820      	ldr	r0, [r4, #0]
 8004100:	f000 fc21 	bl	8004946 <SDIO_GetResponse>
 8004104:	0d00      	lsrs	r0, r0, #20
 8004106:	64e0      	str	r0, [r4, #76]	; 0x4c
 8004108:	a90d      	add	r1, sp, #52	; 0x34
 800410a:	4620      	mov	r0, r4
 800410c:	f7ff fe82 	bl	8003e14 <HAL_SD_GetCardCSD>
 8004110:	4605      	mov	r5, r0
 8004112:	bb08      	cbnz	r0, 8004158 <HAL_SD_InitCard+0x1d8>
 8004114:	6d22      	ldr	r2, [r4, #80]	; 0x50
 8004116:	4603      	mov	r3, r0
 8004118:	0412      	lsls	r2, r2, #16
 800411a:	6820      	ldr	r0, [r4, #0]
 800411c:	f000 fcbc 	bl	8004a98 <SDMMC_CmdSelDesel>
 8004120:	b9e0      	cbnz	r0, 800415c <HAL_SD_InitCard+0x1dc>
 8004122:	f104 0310 	add.w	r3, r4, #16
 8004126:	e893 0007 	ldmia.w	r3, {r0, r1, r2}
 800412a:	e88d 0007 	stmia.w	sp, {r0, r1, r2}
 800412e:	1d23      	adds	r3, r4, #4
 8004130:	cb0e      	ldmia	r3, {r1, r2, r3}
 8004132:	6820      	ldr	r0, [r4, #0]
 8004134:	f000 fbc4 	bl	80048c0 <SDIO_Init>
 8004138:	6820      	ldr	r0, [r4, #0]
 800413a:	f44f 7100 	mov.w	r1, #512	; 0x200
 800413e:	f000 fc18 	bl	8004972 <SDMMC_CmdBlockLength>
 8004142:	b188      	cbz	r0, 8004168 <HAL_SD_InitCard+0x1e8>
 8004144:	6823      	ldr	r3, [r4, #0]
 8004146:	4a0b      	ldr	r2, [pc, #44]	; (8004174 <HAL_SD_InitCard+0x1f4>)
 8004148:	639a      	str	r2, [r3, #56]	; 0x38
 800414a:	6ba3      	ldr	r3, [r4, #56]	; 0x38
 800414c:	2501      	movs	r5, #1
 800414e:	4318      	orrs	r0, r3
 8004150:	63a0      	str	r0, [r4, #56]	; 0x38
 8004152:	f884 5034 	strb.w	r5, [r4, #52]	; 0x34
 8004156:	e007      	b.n	8004168 <HAL_SD_InitCard+0x1e8>
 8004158:	f04f 5080 	mov.w	r0, #268435456	; 0x10000000
 800415c:	2501      	movs	r5, #1
 800415e:	f884 5034 	strb.w	r5, [r4, #52]	; 0x34
 8004162:	6ba1      	ldr	r1, [r4, #56]	; 0x38
 8004164:	4301      	orrs	r1, r0
 8004166:	63a1      	str	r1, [r4, #56]	; 0x38
 8004168:	4628      	mov	r0, r5
 800416a:	b018      	add	sp, #96	; 0x60
 800416c:	e8bd 81f0 	ldmia.w	sp!, {r4, r5, r6, r7, r8, pc}
 8004170:	422580a0 	.word	0x422580a0
 8004174:	004005ff 	.word	0x004005ff
 8004178:	c1100000 	.word	0xc1100000

0800417c <HAL_SD_Init>:
 800417c:	b510      	push	{r4, lr}
 800417e:	4604      	mov	r4, r0
 8004180:	b908      	cbnz	r0, 8004186 <HAL_SD_Init+0xa>
 8004182:	2001      	movs	r0, #1
 8004184:	bd10      	pop	{r4, pc}
 8004186:	f890 3034 	ldrb.w	r3, [r0, #52]	; 0x34
 800418a:	f003 02ff 	and.w	r2, r3, #255	; 0xff
 800418e:	b913      	cbnz	r3, 8004196 <HAL_SD_Init+0x1a>
 8004190:	7702      	strb	r2, [r0, #28]
 8004192:	f7fd fd0f 	bl	8001bb4 <HAL_SD_MspInit>
 8004196:	2303      	movs	r3, #3
 8004198:	f884 3034 	strb.w	r3, [r4, #52]	; 0x34
 800419c:	4620      	mov	r0, r4
 800419e:	f7ff feef 	bl	8003f80 <HAL_SD_InitCard>
 80041a2:	2800      	cmp	r0, #0
 80041a4:	d1ed      	bne.n	8004182 <HAL_SD_Init+0x6>
 80041a6:	2301      	movs	r3, #1
 80041a8:	63a0      	str	r0, [r4, #56]	; 0x38
 80041aa:	6320      	str	r0, [r4, #48]	; 0x30
 80041ac:	f884 3034 	strb.w	r3, [r4, #52]	; 0x34
 80041b0:	e7e8      	b.n	8004184 <HAL_SD_Init+0x8>

080041b2 <HAL_SD_GetCardInfo>:
 80041b2:	6c43      	ldr	r3, [r0, #68]	; 0x44
 80041b4:	600b      	str	r3, [r1, #0]
 80041b6:	6c83      	ldr	r3, [r0, #72]	; 0x48
 80041b8:	604b      	str	r3, [r1, #4]
 80041ba:	6cc3      	ldr	r3, [r0, #76]	; 0x4c
 80041bc:	608b      	str	r3, [r1, #8]
 80041be:	6d03      	ldr	r3, [r0, #80]	; 0x50
 80041c0:	60cb      	str	r3, [r1, #12]
 80041c2:	6d43      	ldr	r3, [r0, #84]	; 0x54
 80041c4:	610b      	str	r3, [r1, #16]
 80041c6:	6d83      	ldr	r3, [r0, #88]	; 0x58
 80041c8:	614b      	str	r3, [r1, #20]
 80041ca:	6dc3      	ldr	r3, [r0, #92]	; 0x5c
 80041cc:	618b      	str	r3, [r1, #24]
 80041ce:	6e03      	ldr	r3, [r0, #96]	; 0x60
 80041d0:	61cb      	str	r3, [r1, #28]
 80041d2:	2000      	movs	r0, #0
 80041d4:	4770      	bx	lr
	...

080041d8 <HAL_SD_ConfigWideBusOperation>:
 80041d8:	b5f0      	push	{r4, r5, r6, r7, lr}
 80041da:	2303      	movs	r3, #3
 80041dc:	f880 3034 	strb.w	r3, [r0, #52]	; 0x34
 80041e0:	6c43      	ldr	r3, [r0, #68]	; 0x44
 80041e2:	2b03      	cmp	r3, #3
 80041e4:	b08b      	sub	sp, #44	; 0x2c
 80041e6:	4604      	mov	r4, r0
 80041e8:	460d      	mov	r5, r1
 80041ea:	d002      	beq.n	80041f2 <HAL_SD_ConfigWideBusOperation+0x1a>
 80041ec:	f5b1 5f80 	cmp.w	r1, #4096	; 0x1000
 80041f0:	d103      	bne.n	80041fa <HAL_SD_ConfigWideBusOperation+0x22>
 80041f2:	6ba3      	ldr	r3, [r4, #56]	; 0x38
 80041f4:	f043 5380 	orr.w	r3, r3, #268435456	; 0x10000000
 80041f8:	e065      	b.n	80042c6 <HAL_SD_ConfigWideBusOperation+0xee>
 80041fa:	f5b1 6f00 	cmp.w	r1, #2048	; 0x800
 80041fe:	6800      	ldr	r0, [r0, #0]
 8004200:	d13c      	bne.n	800427c <HAL_SD_ConfigWideBusOperation+0xa4>
 8004202:	2100      	movs	r1, #0
 8004204:	e9cd 1104 	strd	r1, r1, [sp, #16]
 8004208:	f000 fb9d 	bl	8004946 <SDIO_GetResponse>
 800420c:	0180      	lsls	r0, r0, #6
 800420e:	d430      	bmi.n	8004272 <HAL_SD_ConfigWideBusOperation+0x9a>
 8004210:	a904      	add	r1, sp, #16
 8004212:	4620      	mov	r0, r4
 8004214:	f7ff fbc4 	bl	80039a0 <SD_FindSCR>
 8004218:	b960      	cbnz	r0, 8004234 <HAL_SD_ConfigWideBusOperation+0x5c>
 800421a:	9b05      	ldr	r3, [sp, #20]
 800421c:	0359      	lsls	r1, r3, #13
 800421e:	d52a      	bpl.n	8004276 <HAL_SD_ConfigWideBusOperation+0x9e>
 8004220:	6d21      	ldr	r1, [r4, #80]	; 0x50
 8004222:	6820      	ldr	r0, [r4, #0]
 8004224:	0409      	lsls	r1, r1, #16
 8004226:	f000 fcb1 	bl	8004b8c <SDMMC_CmdAppCommand>
 800422a:	b918      	cbnz	r0, 8004234 <HAL_SD_ConfigWideBusOperation+0x5c>
 800422c:	6820      	ldr	r0, [r4, #0]
 800422e:	2102      	movs	r1, #2
 8004230:	f000 fcdd 	bl	8004bee <SDMMC_CmdBusWidth>
 8004234:	6ba3      	ldr	r3, [r4, #56]	; 0x38
 8004236:	4318      	orrs	r0, r3
 8004238:	63a0      	str	r0, [r4, #56]	; 0x38
 800423a:	6ba6      	ldr	r6, [r4, #56]	; 0x38
 800423c:	6827      	ldr	r7, [r4, #0]
 800423e:	2e00      	cmp	r6, #0
 8004240:	d043      	beq.n	80042ca <HAL_SD_ConfigWideBusOperation+0xf2>
 8004242:	4b2d      	ldr	r3, [pc, #180]	; (80042f8 <HAL_SD_ConfigWideBusOperation+0x120>)
 8004244:	63bb      	str	r3, [r7, #56]	; 0x38
 8004246:	2501      	movs	r5, #1
 8004248:	f884 5034 	strb.w	r5, [r4, #52]	; 0x34
 800424c:	6820      	ldr	r0, [r4, #0]
 800424e:	f44f 7100 	mov.w	r1, #512	; 0x200
 8004252:	f000 fb8e 	bl	8004972 <SDMMC_CmdBlockLength>
 8004256:	b130      	cbz	r0, 8004266 <HAL_SD_ConfigWideBusOperation+0x8e>
 8004258:	6823      	ldr	r3, [r4, #0]
 800425a:	4a27      	ldr	r2, [pc, #156]	; (80042f8 <HAL_SD_ConfigWideBusOperation+0x120>)
 800425c:	639a      	str	r2, [r3, #56]	; 0x38
 800425e:	6ba3      	ldr	r3, [r4, #56]	; 0x38
 8004260:	4318      	orrs	r0, r3
 8004262:	63a0      	str	r0, [r4, #56]	; 0x38
 8004264:	2501      	movs	r5, #1
 8004266:	2301      	movs	r3, #1
 8004268:	4628      	mov	r0, r5
 800426a:	f884 3034 	strb.w	r3, [r4, #52]	; 0x34
 800426e:	b00b      	add	sp, #44	; 0x2c
 8004270:	bdf0      	pop	{r4, r5, r6, r7, pc}
 8004272:	4628      	mov	r0, r5
 8004274:	e7de      	b.n	8004234 <HAL_SD_ConfigWideBusOperation+0x5c>
 8004276:	f04f 6080 	mov.w	r0, #67108864	; 0x4000000
 800427a:	e7db      	b.n	8004234 <HAL_SD_ConfigWideBusOperation+0x5c>
 800427c:	bb01      	cbnz	r1, 80042c0 <HAL_SD_ConfigWideBusOperation+0xe8>
 800427e:	e9cd 1104 	strd	r1, r1, [sp, #16]
 8004282:	f000 fb60 	bl	8004946 <SDIO_GetResponse>
 8004286:	0182      	lsls	r2, r0, #6
 8004288:	d414      	bmi.n	80042b4 <HAL_SD_ConfigWideBusOperation+0xdc>
 800428a:	a904      	add	r1, sp, #16
 800428c:	4620      	mov	r0, r4
 800428e:	f7ff fb87 	bl	80039a0 <SD_FindSCR>
 8004292:	b960      	cbnz	r0, 80042ae <HAL_SD_ConfigWideBusOperation+0xd6>
 8004294:	9b05      	ldr	r3, [sp, #20]
 8004296:	03db      	lsls	r3, r3, #15
 8004298:	d50f      	bpl.n	80042ba <HAL_SD_ConfigWideBusOperation+0xe2>
 800429a:	6d21      	ldr	r1, [r4, #80]	; 0x50
 800429c:	6820      	ldr	r0, [r4, #0]
 800429e:	0409      	lsls	r1, r1, #16
 80042a0:	f000 fc74 	bl	8004b8c <SDMMC_CmdAppCommand>
 80042a4:	b918      	cbnz	r0, 80042ae <HAL_SD_ConfigWideBusOperation+0xd6>
 80042a6:	4601      	mov	r1, r0
 80042a8:	6820      	ldr	r0, [r4, #0]
 80042aa:	f000 fca0 	bl	8004bee <SDMMC_CmdBusWidth>
 80042ae:	6ba1      	ldr	r1, [r4, #56]	; 0x38
 80042b0:	4308      	orrs	r0, r1
 80042b2:	e7c1      	b.n	8004238 <HAL_SD_ConfigWideBusOperation+0x60>
 80042b4:	f44f 6000 	mov.w	r0, #2048	; 0x800
 80042b8:	e7f9      	b.n	80042ae <HAL_SD_ConfigWideBusOperation+0xd6>
 80042ba:	f04f 6080 	mov.w	r0, #67108864	; 0x4000000
 80042be:	e7f6      	b.n	80042ae <HAL_SD_ConfigWideBusOperation+0xd6>
 80042c0:	6ba3      	ldr	r3, [r4, #56]	; 0x38
 80042c2:	f043 6300 	orr.w	r3, r3, #134217728	; 0x8000000
 80042c6:	63a3      	str	r3, [r4, #56]	; 0x38
 80042c8:	e7b7      	b.n	800423a <HAL_SD_ConfigWideBusOperation+0x62>
 80042ca:	6863      	ldr	r3, [r4, #4]
 80042cc:	9304      	str	r3, [sp, #16]
 80042ce:	68a3      	ldr	r3, [r4, #8]
 80042d0:	9305      	str	r3, [sp, #20]
 80042d2:	68e3      	ldr	r3, [r4, #12]
 80042d4:	e9cd 3506 	strd	r3, r5, [sp, #24]
 80042d8:	6963      	ldr	r3, [r4, #20]
 80042da:	9308      	str	r3, [sp, #32]
 80042dc:	69a3      	ldr	r3, [r4, #24]
 80042de:	9309      	str	r3, [sp, #36]	; 0x24
 80042e0:	ab0a      	add	r3, sp, #40	; 0x28
 80042e2:	e913 0007 	ldmdb	r3, {r0, r1, r2}
 80042e6:	e88d 0007 	stmia.w	sp, {r0, r1, r2}
 80042ea:	ab04      	add	r3, sp, #16
 80042ec:	cb0e      	ldmia	r3, {r1, r2, r3}
 80042ee:	4638      	mov	r0, r7
 80042f0:	f000 fae6 	bl	80048c0 <SDIO_Init>
 80042f4:	4635      	mov	r5, r6
 80042f6:	e7a9      	b.n	800424c <HAL_SD_ConfigWideBusOperation+0x74>
 80042f8:	004005ff 	.word	0x004005ff

080042fc <HAL_SD_GetCardState>:
 80042fc:	6d01      	ldr	r1, [r0, #80]	; 0x50
 80042fe:	b510      	push	{r4, lr}
 8004300:	0409      	lsls	r1, r1, #16
 8004302:	4604      	mov	r4, r0
 8004304:	6800      	ldr	r0, [r0, #0]
 8004306:	f000 fd1f 	bl	8004d48 <SDMMC_CmdSendStatus>
 800430a:	b930      	cbnz	r0, 800431a <HAL_SD_GetCardState+0x1e>
 800430c:	4601      	mov	r1, r0
 800430e:	6820      	ldr	r0, [r4, #0]
 8004310:	f000 fb19 	bl	8004946 <SDIO_GetResponse>
 8004314:	f3c0 2043 	ubfx	r0, r0, #9, #4
 8004318:	bd10      	pop	{r4, pc}
 800431a:	6ba1      	ldr	r1, [r4, #56]	; 0x38
 800431c:	4308      	orrs	r0, r1
 800431e:	63a0      	str	r0, [r4, #56]	; 0x38
 8004320:	2000      	movs	r0, #0
 8004322:	e7f7      	b.n	8004314 <HAL_SD_GetCardState+0x18>

08004324 <HAL_SDRAM_Init>:
 8004324:	b538      	push	{r3, r4, r5, lr}
 8004326:	460d      	mov	r5, r1
 8004328:	4604      	mov	r4, r0
 800432a:	b1c8      	cbz	r0, 8004360 <HAL_SDRAM_Init+0x3c>
 800432c:	f890 302c 	ldrb.w	r3, [r0, #44]	; 0x2c
 8004330:	f003 02ff 	and.w	r2, r3, #255	; 0xff
 8004334:	b91b      	cbnz	r3, 800433e <HAL_SDRAM_Init+0x1a>
 8004336:	f880 202d 	strb.w	r2, [r0, #45]	; 0x2d
 800433a:	f7fd fdaf 	bl	8001e9c <HAL_SDRAM_MspInit>
 800433e:	2302      	movs	r3, #2
 8004340:	f884 302c 	strb.w	r3, [r4, #44]	; 0x2c
 8004344:	1d21      	adds	r1, r4, #4
 8004346:	6820      	ldr	r0, [r4, #0]
 8004348:	f000 f972 	bl	8004630 <FMC_SDRAM_Init>
 800434c:	6862      	ldr	r2, [r4, #4]
 800434e:	6820      	ldr	r0, [r4, #0]
 8004350:	4629      	mov	r1, r5
 8004352:	f000 f9a3 	bl	800469c <FMC_SDRAM_Timing_Init>
 8004356:	2301      	movs	r3, #1
 8004358:	f884 302c 	strb.w	r3, [r4, #44]	; 0x2c
 800435c:	2000      	movs	r0, #0
 800435e:	bd38      	pop	{r3, r4, r5, pc}
 8004360:	2001      	movs	r0, #1
 8004362:	e7fc      	b.n	800435e <HAL_SDRAM_Init+0x3a>

08004364 <HAL_SPI_Init>:
 8004364:	b510      	push	{r4, lr}
 8004366:	4604      	mov	r4, r0
 8004368:	2800      	cmp	r0, #0
 800436a:	d055      	beq.n	8004418 <HAL_SPI_Init+0xb4>
 800436c:	6a43      	ldr	r3, [r0, #36]	; 0x24
 800436e:	2b00      	cmp	r3, #0
 8004370:	d14e      	bne.n	8004410 <HAL_SPI_Init+0xac>
 8004372:	6842      	ldr	r2, [r0, #4]
 8004374:	f5b2 7f82 	cmp.w	r2, #260	; 0x104
 8004378:	d000      	beq.n	800437c <HAL_SPI_Init+0x18>
 800437a:	61c3      	str	r3, [r0, #28]
 800437c:	2300      	movs	r3, #0
 800437e:	62a3      	str	r3, [r4, #40]	; 0x28
 8004380:	f894 3051 	ldrb.w	r3, [r4, #81]	; 0x51
 8004384:	f003 02ff 	and.w	r2, r3, #255	; 0xff
 8004388:	b923      	cbnz	r3, 8004394 <HAL_SPI_Init+0x30>
 800438a:	f884 2050 	strb.w	r2, [r4, #80]	; 0x50
 800438e:	4620      	mov	r0, r4
 8004390:	f7fd fc60 	bl	8001c54 <HAL_SPI_MspInit>
 8004394:	6821      	ldr	r1, [r4, #0]
 8004396:	68a0      	ldr	r0, [r4, #8]
 8004398:	69a2      	ldr	r2, [r4, #24]
 800439a:	2302      	movs	r3, #2
 800439c:	f884 3051 	strb.w	r3, [r4, #81]	; 0x51
 80043a0:	680b      	ldr	r3, [r1, #0]
 80043a2:	f023 0340 	bic.w	r3, r3, #64	; 0x40
 80043a6:	600b      	str	r3, [r1, #0]
 80043a8:	6863      	ldr	r3, [r4, #4]
 80043aa:	f400 4004 	and.w	r0, r0, #33792	; 0x8400
 80043ae:	f403 7382 	and.w	r3, r3, #260	; 0x104
 80043b2:	4303      	orrs	r3, r0
 80043b4:	68e0      	ldr	r0, [r4, #12]
 80043b6:	f400 6000 	and.w	r0, r0, #2048	; 0x800
 80043ba:	4303      	orrs	r3, r0
 80043bc:	6920      	ldr	r0, [r4, #16]
 80043be:	f000 0002 	and.w	r0, r0, #2
 80043c2:	4303      	orrs	r3, r0
 80043c4:	6960      	ldr	r0, [r4, #20]
 80043c6:	f000 0001 	and.w	r0, r0, #1
 80043ca:	4303      	orrs	r3, r0
 80043cc:	f402 7000 	and.w	r0, r2, #512	; 0x200
 80043d0:	4303      	orrs	r3, r0
 80043d2:	69e0      	ldr	r0, [r4, #28]
 80043d4:	f000 0038 	and.w	r0, r0, #56	; 0x38
 80043d8:	4303      	orrs	r3, r0
 80043da:	6a20      	ldr	r0, [r4, #32]
 80043dc:	f000 0080 	and.w	r0, r0, #128	; 0x80
 80043e0:	4303      	orrs	r3, r0
 80043e2:	6aa0      	ldr	r0, [r4, #40]	; 0x28
 80043e4:	f400 5000 	and.w	r0, r0, #8192	; 0x2000
 80043e8:	4303      	orrs	r3, r0
 80043ea:	600b      	str	r3, [r1, #0]
 80043ec:	6a63      	ldr	r3, [r4, #36]	; 0x24
 80043ee:	0c12      	lsrs	r2, r2, #16
 80043f0:	f003 0310 	and.w	r3, r3, #16
 80043f4:	f002 0204 	and.w	r2, r2, #4
 80043f8:	431a      	orrs	r2, r3
 80043fa:	604a      	str	r2, [r1, #4]
 80043fc:	69cb      	ldr	r3, [r1, #28]
 80043fe:	f423 6300 	bic.w	r3, r3, #2048	; 0x800
 8004402:	61cb      	str	r3, [r1, #28]
 8004404:	2000      	movs	r0, #0
 8004406:	2301      	movs	r3, #1
 8004408:	6560      	str	r0, [r4, #84]	; 0x54
 800440a:	f884 3051 	strb.w	r3, [r4, #81]	; 0x51
 800440e:	bd10      	pop	{r4, pc}
 8004410:	2300      	movs	r3, #0
 8004412:	e9c0 3304 	strd	r3, r3, [r0, #16]
 8004416:	e7b1      	b.n	800437c <HAL_SPI_Init+0x18>
 8004418:	2001      	movs	r0, #1
 800441a:	e7f8      	b.n	800440e <HAL_SPI_Init+0xaa>

0800441c <UART_SetConfig>:
 800441c:	6802      	ldr	r2, [r0, #0]
 800441e:	68c1      	ldr	r1, [r0, #12]
 8004420:	b538      	push	{r3, r4, r5, lr}
 8004422:	6913      	ldr	r3, [r2, #16]
 8004424:	f423 5340 	bic.w	r3, r3, #12288	; 0x3000
 8004428:	430b      	orrs	r3, r1
 800442a:	6113      	str	r3, [r2, #16]
 800442c:	4605      	mov	r5, r0
 800442e:	6883      	ldr	r3, [r0, #8]
 8004430:	6900      	ldr	r0, [r0, #16]
 8004432:	68d1      	ldr	r1, [r2, #12]
 8004434:	4303      	orrs	r3, r0
 8004436:	6968      	ldr	r0, [r5, #20]
 8004438:	4303      	orrs	r3, r0
 800443a:	69e8      	ldr	r0, [r5, #28]
 800443c:	f421 4116 	bic.w	r1, r1, #38400	; 0x9600
 8004440:	f021 010c 	bic.w	r1, r1, #12
 8004444:	4303      	orrs	r3, r0
 8004446:	430b      	orrs	r3, r1
 8004448:	60d3      	str	r3, [r2, #12]
 800444a:	6953      	ldr	r3, [r2, #20]
 800444c:	69a9      	ldr	r1, [r5, #24]
 800444e:	f423 7340 	bic.w	r3, r3, #768	; 0x300
 8004452:	430b      	orrs	r3, r1
 8004454:	6153      	str	r3, [r2, #20]
 8004456:	4b1f      	ldr	r3, [pc, #124]	; (80044d4 <UART_SetConfig+0xb8>)
 8004458:	429a      	cmp	r2, r3
 800445a:	d003      	beq.n	8004464 <UART_SetConfig+0x48>
 800445c:	f503 6380 	add.w	r3, r3, #1024	; 0x400
 8004460:	429a      	cmp	r2, r3
 8004462:	d124      	bne.n	80044ae <UART_SetConfig+0x92>
 8004464:	f7ff f962 	bl	800372c <HAL_RCC_GetPCLK2Freq>
 8004468:	69ea      	ldr	r2, [r5, #28]
 800446a:	2319      	movs	r3, #25
 800446c:	f5b2 4f00 	cmp.w	r2, #32768	; 0x8000
 8004470:	fba0 0103 	umull	r0, r1, r0, r3
 8004474:	e9d5 4300 	ldrd	r4, r3, [r5]
 8004478:	d11c      	bne.n	80044b4 <UART_SetConfig+0x98>
 800447a:	461a      	mov	r2, r3
 800447c:	1892      	adds	r2, r2, r2
 800447e:	f04f 0300 	mov.w	r3, #0
 8004482:	415b      	adcs	r3, r3
 8004484:	f7fc f8d8 	bl	8000638 <__aeabi_uldivmod>
 8004488:	2164      	movs	r1, #100	; 0x64
 800448a:	fbb0 f5f1 	udiv	r5, r0, r1
 800448e:	fb01 0315 	mls	r3, r1, r5, r0
 8004492:	00db      	lsls	r3, r3, #3
 8004494:	3332      	adds	r3, #50	; 0x32
 8004496:	fbb3 f3f1 	udiv	r3, r3, r1
 800449a:	f003 0207 	and.w	r2, r3, #7
 800449e:	005b      	lsls	r3, r3, #1
 80044a0:	eb02 1205 	add.w	r2, r2, r5, lsl #4
 80044a4:	f403 73f8 	and.w	r3, r3, #496	; 0x1f0
 80044a8:	4413      	add	r3, r2
 80044aa:	60a3      	str	r3, [r4, #8]
 80044ac:	bd38      	pop	{r3, r4, r5, pc}
 80044ae:	f7ff f92d 	bl	800370c <HAL_RCC_GetPCLK1Freq>
 80044b2:	e7d9      	b.n	8004468 <UART_SetConfig+0x4c>
 80044b4:	009a      	lsls	r2, r3, #2
 80044b6:	0f9b      	lsrs	r3, r3, #30
 80044b8:	f7fc f8be 	bl	8000638 <__aeabi_uldivmod>
 80044bc:	2264      	movs	r2, #100	; 0x64
 80044be:	fbb0 f1f2 	udiv	r1, r0, r2
 80044c2:	fb02 0311 	mls	r3, r2, r1, r0
 80044c6:	011b      	lsls	r3, r3, #4
 80044c8:	3332      	adds	r3, #50	; 0x32
 80044ca:	fbb3 f3f2 	udiv	r3, r3, r2
 80044ce:	eb03 1301 	add.w	r3, r3, r1, lsl #4
 80044d2:	e7ea      	b.n	80044aa <UART_SetConfig+0x8e>
 80044d4:	40011000 	.word	0x40011000

080044d8 <UART_WaitOnFlagUntilTimeout.constprop.0>:
 80044d8:	b5f8      	push	{r3, r4, r5, r6, r7, lr}
 80044da:	4604      	mov	r4, r0
 80044dc:	460e      	mov	r6, r1
 80044de:	4617      	mov	r7, r2
 80044e0:	461d      	mov	r5, r3
 80044e2:	6822      	ldr	r2, [r4, #0]
 80044e4:	6813      	ldr	r3, [r2, #0]
 80044e6:	ea36 0303 	bics.w	r3, r6, r3
 80044ea:	d101      	bne.n	80044f0 <UART_WaitOnFlagUntilTimeout.constprop.0+0x18>
 80044ec:	2000      	movs	r0, #0
 80044ee:	e014      	b.n	800451a <UART_WaitOnFlagUntilTimeout.constprop.0+0x42>
 80044f0:	1c6b      	adds	r3, r5, #1
 80044f2:	d0f7      	beq.n	80044e4 <UART_WaitOnFlagUntilTimeout.constprop.0+0xc>
 80044f4:	b995      	cbnz	r5, 800451c <UART_WaitOnFlagUntilTimeout.constprop.0+0x44>
 80044f6:	6823      	ldr	r3, [r4, #0]
 80044f8:	68da      	ldr	r2, [r3, #12]
 80044fa:	f422 72d0 	bic.w	r2, r2, #416	; 0x1a0
 80044fe:	60da      	str	r2, [r3, #12]
 8004500:	695a      	ldr	r2, [r3, #20]
 8004502:	f022 0201 	bic.w	r2, r2, #1
 8004506:	615a      	str	r2, [r3, #20]
 8004508:	2320      	movs	r3, #32
 800450a:	f884 303d 	strb.w	r3, [r4, #61]	; 0x3d
 800450e:	f884 303e 	strb.w	r3, [r4, #62]	; 0x3e
 8004512:	2300      	movs	r3, #0
 8004514:	f884 303c 	strb.w	r3, [r4, #60]	; 0x3c
 8004518:	2003      	movs	r0, #3
 800451a:	bdf8      	pop	{r3, r4, r5, r6, r7, pc}
 800451c:	f7fd fdce 	bl	80020bc <HAL_GetTick>
 8004520:	1bc0      	subs	r0, r0, r7
 8004522:	4285      	cmp	r5, r0
 8004524:	d2dd      	bcs.n	80044e2 <UART_WaitOnFlagUntilTimeout.constprop.0+0xa>
 8004526:	e7e6      	b.n	80044f6 <UART_WaitOnFlagUntilTimeout.constprop.0+0x1e>

08004528 <HAL_UART_Init>:
 8004528:	b510      	push	{r4, lr}
 800452a:	4604      	mov	r4, r0
 800452c:	b340      	cbz	r0, 8004580 <HAL_UART_Init+0x58>
 800452e:	f890 303d 	ldrb.w	r3, [r0, #61]	; 0x3d
 8004532:	f003 02ff 	and.w	r2, r3, #255	; 0xff
 8004536:	b91b      	cbnz	r3, 8004540 <HAL_UART_Init+0x18>
 8004538:	f880 203c 	strb.w	r2, [r0, #60]	; 0x3c
 800453c:	f7fd fbc0 	bl	8001cc0 <HAL_UART_MspInit>
 8004540:	6822      	ldr	r2, [r4, #0]
 8004542:	2324      	movs	r3, #36	; 0x24
 8004544:	f884 303d 	strb.w	r3, [r4, #61]	; 0x3d
 8004548:	68d3      	ldr	r3, [r2, #12]
 800454a:	f423 5300 	bic.w	r3, r3, #8192	; 0x2000
 800454e:	60d3      	str	r3, [r2, #12]
 8004550:	4620      	mov	r0, r4
 8004552:	f7ff ff63 	bl	800441c <UART_SetConfig>
 8004556:	6823      	ldr	r3, [r4, #0]
 8004558:	691a      	ldr	r2, [r3, #16]
 800455a:	f422 4290 	bic.w	r2, r2, #18432	; 0x4800
 800455e:	611a      	str	r2, [r3, #16]
 8004560:	695a      	ldr	r2, [r3, #20]
 8004562:	f022 022a 	bic.w	r2, r2, #42	; 0x2a
 8004566:	615a      	str	r2, [r3, #20]
 8004568:	68da      	ldr	r2, [r3, #12]
 800456a:	f442 5200 	orr.w	r2, r2, #8192	; 0x2000
 800456e:	60da      	str	r2, [r3, #12]
 8004570:	2000      	movs	r0, #0
 8004572:	2320      	movs	r3, #32
 8004574:	6420      	str	r0, [r4, #64]	; 0x40
 8004576:	f884 303d 	strb.w	r3, [r4, #61]	; 0x3d
 800457a:	f884 303e 	strb.w	r3, [r4, #62]	; 0x3e
 800457e:	bd10      	pop	{r4, pc}
 8004580:	2001      	movs	r0, #1
 8004582:	e7fc      	b.n	800457e <HAL_UART_Init+0x56>

08004584 <HAL_UART_Transmit>:
 8004584:	b5f7      	push	{r0, r1, r2, r4, r5, r6, r7, lr}
 8004586:	4617      	mov	r7, r2
 8004588:	f890 203d 	ldrb.w	r2, [r0, #61]	; 0x3d
 800458c:	9300      	str	r3, [sp, #0]
 800458e:	2a20      	cmp	r2, #32
 8004590:	4604      	mov	r4, r0
 8004592:	460e      	mov	r6, r1
 8004594:	d149      	bne.n	800462a <HAL_UART_Transmit+0xa6>
 8004596:	2900      	cmp	r1, #0
 8004598:	d045      	beq.n	8004626 <HAL_UART_Transmit+0xa2>
 800459a:	2f00      	cmp	r7, #0
 800459c:	d043      	beq.n	8004626 <HAL_UART_Transmit+0xa2>
 800459e:	f890 203c 	ldrb.w	r2, [r0, #60]	; 0x3c
 80045a2:	2a01      	cmp	r2, #1
 80045a4:	d041      	beq.n	800462a <HAL_UART_Transmit+0xa6>
 80045a6:	2201      	movs	r2, #1
 80045a8:	f880 203c 	strb.w	r2, [r0, #60]	; 0x3c
 80045ac:	2500      	movs	r5, #0
 80045ae:	2221      	movs	r2, #33	; 0x21
 80045b0:	6405      	str	r5, [r0, #64]	; 0x40
 80045b2:	f880 203d 	strb.w	r2, [r0, #61]	; 0x3d
 80045b6:	f7fd fd81 	bl	80020bc <HAL_GetTick>
 80045ba:	68a1      	ldr	r1, [r4, #8]
 80045bc:	9b00      	ldr	r3, [sp, #0]
 80045be:	84a7      	strh	r7, [r4, #36]	; 0x24
 80045c0:	f5b1 5f80 	cmp.w	r1, #4096	; 0x1000
 80045c4:	4602      	mov	r2, r0
 80045c6:	84e7      	strh	r7, [r4, #38]	; 0x26
 80045c8:	d103      	bne.n	80045d2 <HAL_UART_Transmit+0x4e>
 80045ca:	6921      	ldr	r1, [r4, #16]
 80045cc:	b909      	cbnz	r1, 80045d2 <HAL_UART_Transmit+0x4e>
 80045ce:	4635      	mov	r5, r6
 80045d0:	460e      	mov	r6, r1
 80045d2:	2100      	movs	r1, #0
 80045d4:	f884 103c 	strb.w	r1, [r4, #60]	; 0x3c
 80045d8:	8ce1      	ldrh	r1, [r4, #38]	; 0x26
 80045da:	b289      	uxth	r1, r1
 80045dc:	b941      	cbnz	r1, 80045f0 <HAL_UART_Transmit+0x6c>
 80045de:	2140      	movs	r1, #64	; 0x40
 80045e0:	4620      	mov	r0, r4
 80045e2:	f7ff ff79 	bl	80044d8 <UART_WaitOnFlagUntilTimeout.constprop.0>
 80045e6:	b960      	cbnz	r0, 8004602 <HAL_UART_Transmit+0x7e>
 80045e8:	2320      	movs	r3, #32
 80045ea:	f884 303d 	strb.w	r3, [r4, #61]	; 0x3d
 80045ee:	e009      	b.n	8004604 <HAL_UART_Transmit+0x80>
 80045f0:	2180      	movs	r1, #128	; 0x80
 80045f2:	4620      	mov	r0, r4
 80045f4:	e9cd 2300 	strd	r2, r3, [sp]
 80045f8:	f7ff ff6e 	bl	80044d8 <UART_WaitOnFlagUntilTimeout.constprop.0>
 80045fc:	e9dd 2300 	ldrd	r2, r3, [sp]
 8004600:	b110      	cbz	r0, 8004608 <HAL_UART_Transmit+0x84>
 8004602:	2003      	movs	r0, #3
 8004604:	b003      	add	sp, #12
 8004606:	bdf0      	pop	{r4, r5, r6, r7, pc}
 8004608:	6820      	ldr	r0, [r4, #0]
 800460a:	b94e      	cbnz	r6, 8004620 <HAL_UART_Transmit+0x9c>
 800460c:	f835 1b02 	ldrh.w	r1, [r5], #2
 8004610:	f3c1 0108 	ubfx	r1, r1, #0, #9
 8004614:	6041      	str	r1, [r0, #4]
 8004616:	8ce1      	ldrh	r1, [r4, #38]	; 0x26
 8004618:	3901      	subs	r1, #1
 800461a:	b289      	uxth	r1, r1
 800461c:	84e1      	strh	r1, [r4, #38]	; 0x26
 800461e:	e7db      	b.n	80045d8 <HAL_UART_Transmit+0x54>
 8004620:	f816 1b01 	ldrb.w	r1, [r6], #1
 8004624:	e7f6      	b.n	8004614 <HAL_UART_Transmit+0x90>
 8004626:	2001      	movs	r0, #1
 8004628:	e7ec      	b.n	8004604 <HAL_UART_Transmit+0x80>
 800462a:	2002      	movs	r0, #2
 800462c:	e7ea      	b.n	8004604 <HAL_UART_Transmit+0x80>
	...

08004630 <FMC_SDRAM_Init>:
 8004630:	e92d 41f0 	stmdb	sp!, {r4, r5, r6, r7, r8, lr}
 8004634:	6a4a      	ldr	r2, [r1, #36]	; 0x24
 8004636:	e9d1 4307 	ldrd	r4, r3, [r1, #28]
 800463a:	e9d1 5801 	ldrd	r5, r8, [r1, #4]
 800463e:	e9d1 ec03 	ldrd	lr, ip, [r1, #12]
 8004642:	e9d1 7605 	ldrd	r7, r6, [r1, #20]
 8004646:	6809      	ldr	r1, [r1, #0]
 8004648:	2901      	cmp	r1, #1
 800464a:	ea43 0304 	orr.w	r3, r3, r4
 800464e:	4912      	ldr	r1, [pc, #72]	; (8004698 <FMC_SDRAM_Init+0x68>)
 8004650:	6804      	ldr	r4, [r0, #0]
 8004652:	d00f      	beq.n	8004674 <FMC_SDRAM_Init+0x44>
 8004654:	431a      	orrs	r2, r3
 8004656:	432a      	orrs	r2, r5
 8004658:	ea42 0308 	orr.w	r3, r2, r8
 800465c:	ea43 030e 	orr.w	r3, r3, lr
 8004660:	ea43 030c 	orr.w	r3, r3, ip
 8004664:	433b      	orrs	r3, r7
 8004666:	4021      	ands	r1, r4
 8004668:	4333      	orrs	r3, r6
 800466a:	430b      	orrs	r3, r1
 800466c:	6003      	str	r3, [r0, #0]
 800466e:	2000      	movs	r0, #0
 8004670:	e8bd 81f0 	ldmia.w	sp!, {r4, r5, r6, r7, r8, pc}
 8004674:	4313      	orrs	r3, r2
 8004676:	6842      	ldr	r2, [r0, #4]
 8004678:	4011      	ands	r1, r2
 800467a:	ea45 0208 	orr.w	r2, r5, r8
 800467e:	ea42 020e 	orr.w	r2, r2, lr
 8004682:	ea42 020c 	orr.w	r2, r2, ip
 8004686:	433a      	orrs	r2, r7
 8004688:	f424 44f8 	bic.w	r4, r4, #31744	; 0x7c00
 800468c:	4332      	orrs	r2, r6
 800468e:	4323      	orrs	r3, r4
 8004690:	430a      	orrs	r2, r1
 8004692:	6003      	str	r3, [r0, #0]
 8004694:	6042      	str	r2, [r0, #4]
 8004696:	e7ea      	b.n	800466e <FMC_SDRAM_Init+0x3e>
 8004698:	ffff8000 	.word	0xffff8000

0800469c <FMC_SDRAM_Timing_Init>:
 800469c:	68cb      	ldr	r3, [r1, #12]
 800469e:	b5f0      	push	{r4, r5, r6, r7, lr}
 80046a0:	680c      	ldr	r4, [r1, #0]
 80046a2:	688e      	ldr	r6, [r1, #8]
 80046a4:	690d      	ldr	r5, [r1, #16]
 80046a6:	1e5f      	subs	r7, r3, #1
 80046a8:	694b      	ldr	r3, [r1, #20]
 80046aa:	f104 3cff 	add.w	ip, r4, #4294967295
 80046ae:	684c      	ldr	r4, [r1, #4]
 80046b0:	6989      	ldr	r1, [r1, #24]
 80046b2:	3b01      	subs	r3, #1
 80046b4:	051b      	lsls	r3, r3, #20
 80046b6:	3c01      	subs	r4, #1
 80046b8:	3e01      	subs	r6, #1
 80046ba:	3d01      	subs	r5, #1
 80046bc:	3901      	subs	r1, #1
 80046be:	2a01      	cmp	r2, #1
 80046c0:	ea4f 1404 	mov.w	r4, r4, lsl #4
 80046c4:	ea4f 2606 	mov.w	r6, r6, lsl #8
 80046c8:	ea4f 4505 	mov.w	r5, r5, lsl #16
 80046cc:	ea4f 6101 	mov.w	r1, r1, lsl #24
 80046d0:	ea43 3307 	orr.w	r3, r3, r7, lsl #12
 80046d4:	d00c      	beq.n	80046f0 <FMC_SDRAM_Timing_Init+0x54>
 80046d6:	ea43 030c 	orr.w	r3, r3, ip
 80046da:	4323      	orrs	r3, r4
 80046dc:	6882      	ldr	r2, [r0, #8]
 80046de:	4333      	orrs	r3, r6
 80046e0:	432b      	orrs	r3, r5
 80046e2:	f002 4270 	and.w	r2, r2, #4026531840	; 0xf0000000
 80046e6:	430b      	orrs	r3, r1
 80046e8:	4313      	orrs	r3, r2
 80046ea:	6083      	str	r3, [r0, #8]
 80046ec:	2000      	movs	r0, #0
 80046ee:	bdf0      	pop	{r4, r5, r6, r7, pc}
 80046f0:	6887      	ldr	r7, [r0, #8]
 80046f2:	f427 0770 	bic.w	r7, r7, #15728640	; 0xf00000
 80046f6:	f427 4770 	bic.w	r7, r7, #61440	; 0xf000
 80046fa:	4334      	orrs	r4, r6
 80046fc:	433b      	orrs	r3, r7
 80046fe:	ea44 020c 	orr.w	r2, r4, ip
 8004702:	68c7      	ldr	r7, [r0, #12]
 8004704:	6083      	str	r3, [r0, #8]
 8004706:	432a      	orrs	r2, r5
 8004708:	f007 4770 	and.w	r7, r7, #4026531840	; 0xf0000000
 800470c:	430a      	orrs	r2, r1
 800470e:	433a      	orrs	r2, r7
 8004710:	60c2      	str	r2, [r0, #12]
 8004712:	e7eb      	b.n	80046ec <FMC_SDRAM_Timing_Init+0x50>

08004714 <SDMMC_GetCmdResp2>:
 8004714:	4b11      	ldr	r3, [pc, #68]	; (800475c <SDMMC_GetCmdResp2+0x48>)
 8004716:	f44f 51fa 	mov.w	r1, #8000	; 0x1f40
 800471a:	681b      	ldr	r3, [r3, #0]
 800471c:	fbb3 f1f1 	udiv	r1, r3, r1
 8004720:	f241 3388 	movw	r3, #5000	; 0x1388
 8004724:	4602      	mov	r2, r0
 8004726:	434b      	muls	r3, r1
 8004728:	3b01      	subs	r3, #1
 800472a:	d313      	bcc.n	8004754 <SDMMC_GetCmdResp2+0x40>
 800472c:	6b51      	ldr	r1, [r2, #52]	; 0x34
 800472e:	f011 0f45 	tst.w	r1, #69	; 0x45
 8004732:	d0f9      	beq.n	8004728 <SDMMC_GetCmdResp2+0x14>
 8004734:	0509      	lsls	r1, r1, #20
 8004736:	d4f7      	bmi.n	8004728 <SDMMC_GetCmdResp2+0x14>
 8004738:	6b53      	ldr	r3, [r2, #52]	; 0x34
 800473a:	075b      	lsls	r3, r3, #29
 800473c:	d502      	bpl.n	8004744 <SDMMC_GetCmdResp2+0x30>
 800473e:	2004      	movs	r0, #4
 8004740:	6390      	str	r0, [r2, #56]	; 0x38
 8004742:	4770      	bx	lr
 8004744:	6b50      	ldr	r0, [r2, #52]	; 0x34
 8004746:	f010 0001 	ands.w	r0, r0, #1
 800474a:	bf14      	ite	ne
 800474c:	2301      	movne	r3, #1
 800474e:	23c5      	moveq	r3, #197	; 0xc5
 8004750:	6393      	str	r3, [r2, #56]	; 0x38
 8004752:	4770      	bx	lr
 8004754:	f04f 4000 	mov.w	r0, #2147483648	; 0x80000000
 8004758:	4770      	bx	lr
 800475a:	bf00      	nop
 800475c:	20000000 	.word	0x20000000

08004760 <SDMMC_GetCmdResp3>:
 8004760:	4b0e      	ldr	r3, [pc, #56]	; (800479c <SDMMC_GetCmdResp3+0x3c>)
 8004762:	f44f 51fa 	mov.w	r1, #8000	; 0x1f40
 8004766:	681b      	ldr	r3, [r3, #0]
 8004768:	fbb3 f1f1 	udiv	r1, r3, r1
 800476c:	f241 3388 	movw	r3, #5000	; 0x1388
 8004770:	4602      	mov	r2, r0
 8004772:	434b      	muls	r3, r1
 8004774:	3b01      	subs	r3, #1
 8004776:	d30e      	bcc.n	8004796 <SDMMC_GetCmdResp3+0x36>
 8004778:	6b51      	ldr	r1, [r2, #52]	; 0x34
 800477a:	f011 0f45 	tst.w	r1, #69	; 0x45
 800477e:	d0f9      	beq.n	8004774 <SDMMC_GetCmdResp3+0x14>
 8004780:	0509      	lsls	r1, r1, #20
 8004782:	d4f7      	bmi.n	8004774 <SDMMC_GetCmdResp3+0x14>
 8004784:	6b50      	ldr	r0, [r2, #52]	; 0x34
 8004786:	f010 0004 	ands.w	r0, r0, #4
 800478a:	bf15      	itete	ne
 800478c:	2004      	movne	r0, #4
 800478e:	23c5      	moveq	r3, #197	; 0xc5
 8004790:	6390      	strne	r0, [r2, #56]	; 0x38
 8004792:	6393      	streq	r3, [r2, #56]	; 0x38
 8004794:	4770      	bx	lr
 8004796:	f04f 4000 	mov.w	r0, #2147483648	; 0x80000000
 800479a:	4770      	bx	lr
 800479c:	20000000 	.word	0x20000000

080047a0 <SDMMC_GetCmdResp1>:
 80047a0:	4b45      	ldr	r3, [pc, #276]	; (80048b8 <SDMMC_GetCmdResp1+0x118>)
 80047a2:	b510      	push	{r4, lr}
 80047a4:	681b      	ldr	r3, [r3, #0]
 80047a6:	4604      	mov	r4, r0
 80047a8:	f44f 50fa 	mov.w	r0, #8000	; 0x1f40
 80047ac:	fbb3 f3f0 	udiv	r3, r3, r0
 80047b0:	435a      	muls	r2, r3
 80047b2:	2a00      	cmp	r2, #0
 80047b4:	d049      	beq.n	800484a <SDMMC_GetCmdResp1+0xaa>
 80047b6:	6b63      	ldr	r3, [r4, #52]	; 0x34
 80047b8:	f013 0f45 	tst.w	r3, #69	; 0x45
 80047bc:	d007      	beq.n	80047ce <SDMMC_GetCmdResp1+0x2e>
 80047be:	051b      	lsls	r3, r3, #20
 80047c0:	d405      	bmi.n	80047ce <SDMMC_GetCmdResp1+0x2e>
 80047c2:	6b63      	ldr	r3, [r4, #52]	; 0x34
 80047c4:	0758      	lsls	r0, r3, #29
 80047c6:	d504      	bpl.n	80047d2 <SDMMC_GetCmdResp1+0x32>
 80047c8:	2004      	movs	r0, #4
 80047ca:	63a0      	str	r0, [r4, #56]	; 0x38
 80047cc:	bd10      	pop	{r4, pc}
 80047ce:	3a01      	subs	r2, #1
 80047d0:	e7ef      	b.n	80047b2 <SDMMC_GetCmdResp1+0x12>
 80047d2:	6b60      	ldr	r0, [r4, #52]	; 0x34
 80047d4:	f010 0001 	ands.w	r0, r0, #1
 80047d8:	d002      	beq.n	80047e0 <SDMMC_GetCmdResp1+0x40>
 80047da:	2301      	movs	r3, #1
 80047dc:	63a3      	str	r3, [r4, #56]	; 0x38
 80047de:	e7f5      	b.n	80047cc <SDMMC_GetCmdResp1+0x2c>
 80047e0:	23c5      	movs	r3, #197	; 0xc5
 80047e2:	63a3      	str	r3, [r4, #56]	; 0x38
 80047e4:	6923      	ldr	r3, [r4, #16]
 80047e6:	b2db      	uxtb	r3, r3
 80047e8:	4299      	cmp	r1, r3
 80047ea:	d131      	bne.n	8004850 <SDMMC_GetCmdResp1+0xb0>
 80047ec:	6963      	ldr	r3, [r4, #20]
 80047ee:	4833      	ldr	r0, [pc, #204]	; (80048bc <SDMMC_GetCmdResp1+0x11c>)
 80047f0:	4018      	ands	r0, r3
 80047f2:	2800      	cmp	r0, #0
 80047f4:	d0ea      	beq.n	80047cc <SDMMC_GetCmdResp1+0x2c>
 80047f6:	2b00      	cmp	r3, #0
 80047f8:	db2c      	blt.n	8004854 <SDMMC_GetCmdResp1+0xb4>
 80047fa:	005a      	lsls	r2, r3, #1
 80047fc:	d42d      	bmi.n	800485a <SDMMC_GetCmdResp1+0xba>
 80047fe:	009c      	lsls	r4, r3, #2
 8004800:	d42d      	bmi.n	800485e <SDMMC_GetCmdResp1+0xbe>
 8004802:	00d9      	lsls	r1, r3, #3
 8004804:	d42d      	bmi.n	8004862 <SDMMC_GetCmdResp1+0xc2>
 8004806:	011a      	lsls	r2, r3, #4
 8004808:	d42e      	bmi.n	8004868 <SDMMC_GetCmdResp1+0xc8>
 800480a:	015c      	lsls	r4, r3, #5
 800480c:	d42f      	bmi.n	800486e <SDMMC_GetCmdResp1+0xce>
 800480e:	01d9      	lsls	r1, r3, #7
 8004810:	d430      	bmi.n	8004874 <SDMMC_GetCmdResp1+0xd4>
 8004812:	021a      	lsls	r2, r3, #8
 8004814:	d431      	bmi.n	800487a <SDMMC_GetCmdResp1+0xda>
 8004816:	025c      	lsls	r4, r3, #9
 8004818:	d432      	bmi.n	8004880 <SDMMC_GetCmdResp1+0xe0>
 800481a:	0299      	lsls	r1, r3, #10
 800481c:	d433      	bmi.n	8004886 <SDMMC_GetCmdResp1+0xe6>
 800481e:	02da      	lsls	r2, r3, #11
 8004820:	d434      	bmi.n	800488c <SDMMC_GetCmdResp1+0xec>
 8004822:	035c      	lsls	r4, r3, #13
 8004824:	d435      	bmi.n	8004892 <SDMMC_GetCmdResp1+0xf2>
 8004826:	0399      	lsls	r1, r3, #14
 8004828:	d436      	bmi.n	8004898 <SDMMC_GetCmdResp1+0xf8>
 800482a:	03da      	lsls	r2, r3, #15
 800482c:	d437      	bmi.n	800489e <SDMMC_GetCmdResp1+0xfe>
 800482e:	041c      	lsls	r4, r3, #16
 8004830:	d438      	bmi.n	80048a4 <SDMMC_GetCmdResp1+0x104>
 8004832:	0459      	lsls	r1, r3, #17
 8004834:	d439      	bmi.n	80048aa <SDMMC_GetCmdResp1+0x10a>
 8004836:	049a      	lsls	r2, r3, #18
 8004838:	d43a      	bmi.n	80048b0 <SDMMC_GetCmdResp1+0x110>
 800483a:	f013 0f08 	tst.w	r3, #8
 800483e:	bf14      	ite	ne
 8004840:	f44f 0000 	movne.w	r0, #8388608	; 0x800000
 8004844:	f44f 3080 	moveq.w	r0, #65536	; 0x10000
 8004848:	e7c0      	b.n	80047cc <SDMMC_GetCmdResp1+0x2c>
 800484a:	f04f 4000 	mov.w	r0, #2147483648	; 0x80000000
 800484e:	e7bd      	b.n	80047cc <SDMMC_GetCmdResp1+0x2c>
 8004850:	2001      	movs	r0, #1
 8004852:	e7bb      	b.n	80047cc <SDMMC_GetCmdResp1+0x2c>
 8004854:	f04f 7000 	mov.w	r0, #33554432	; 0x2000000
 8004858:	e7b8      	b.n	80047cc <SDMMC_GetCmdResp1+0x2c>
 800485a:	2040      	movs	r0, #64	; 0x40
 800485c:	e7b6      	b.n	80047cc <SDMMC_GetCmdResp1+0x2c>
 800485e:	2080      	movs	r0, #128	; 0x80
 8004860:	e7b4      	b.n	80047cc <SDMMC_GetCmdResp1+0x2c>
 8004862:	f44f 7080 	mov.w	r0, #256	; 0x100
 8004866:	e7b1      	b.n	80047cc <SDMMC_GetCmdResp1+0x2c>
 8004868:	f44f 7000 	mov.w	r0, #512	; 0x200
 800486c:	e7ae      	b.n	80047cc <SDMMC_GetCmdResp1+0x2c>
 800486e:	f44f 6080 	mov.w	r0, #1024	; 0x400
 8004872:	e7ab      	b.n	80047cc <SDMMC_GetCmdResp1+0x2c>
 8004874:	f44f 6000 	mov.w	r0, #2048	; 0x800
 8004878:	e7a8      	b.n	80047cc <SDMMC_GetCmdResp1+0x2c>
 800487a:	f44f 5080 	mov.w	r0, #4096	; 0x1000
 800487e:	e7a5      	b.n	80047cc <SDMMC_GetCmdResp1+0x2c>
 8004880:	f44f 5000 	mov.w	r0, #8192	; 0x2000
 8004884:	e7a2      	b.n	80047cc <SDMMC_GetCmdResp1+0x2c>
 8004886:	f44f 4080 	mov.w	r0, #16384	; 0x4000
 800488a:	e79f      	b.n	80047cc <SDMMC_GetCmdResp1+0x2c>
 800488c:	f44f 4000 	mov.w	r0, #32768	; 0x8000
 8004890:	e79c      	b.n	80047cc <SDMMC_GetCmdResp1+0x2c>
 8004892:	f44f 3000 	mov.w	r0, #131072	; 0x20000
 8004896:	e799      	b.n	80047cc <SDMMC_GetCmdResp1+0x2c>
 8004898:	f44f 2080 	mov.w	r0, #262144	; 0x40000
 800489c:	e796      	b.n	80047cc <SDMMC_GetCmdResp1+0x2c>
 800489e:	f44f 2000 	mov.w	r0, #524288	; 0x80000
 80048a2:	e793      	b.n	80047cc <SDMMC_GetCmdResp1+0x2c>
 80048a4:	f44f 1080 	mov.w	r0, #1048576	; 0x100000
 80048a8:	e790      	b.n	80047cc <SDMMC_GetCmdResp1+0x2c>
 80048aa:	f44f 1000 	mov.w	r0, #2097152	; 0x200000
 80048ae:	e78d      	b.n	80047cc <SDMMC_GetCmdResp1+0x2c>
 80048b0:	f44f 0080 	mov.w	r0, #4194304	; 0x400000
 80048b4:	e78a      	b.n	80047cc <SDMMC_GetCmdResp1+0x2c>
 80048b6:	bf00      	nop
 80048b8:	20000000 	.word	0x20000000
 80048bc:	fdffe008 	.word	0xfdffe008

080048c0 <SDIO_Init>:
 80048c0:	b084      	sub	sp, #16
 80048c2:	b510      	push	{r4, lr}
 80048c4:	ac03      	add	r4, sp, #12
 80048c6:	e884 000e 	stmia.w	r4, {r1, r2, r3}
 80048ca:	460b      	mov	r3, r1
 80048cc:	9904      	ldr	r1, [sp, #16]
 80048ce:	6842      	ldr	r2, [r0, #4]
 80048d0:	430b      	orrs	r3, r1
 80048d2:	9905      	ldr	r1, [sp, #20]
 80048d4:	430b      	orrs	r3, r1
 80048d6:	9906      	ldr	r1, [sp, #24]
 80048d8:	430b      	orrs	r3, r1
 80048da:	9907      	ldr	r1, [sp, #28]
 80048dc:	430b      	orrs	r3, r1
 80048de:	9908      	ldr	r1, [sp, #32]
 80048e0:	e8bd 4010 	ldmia.w	sp!, {r4, lr}
 80048e4:	f422 42fd 	bic.w	r2, r2, #32384	; 0x7e80
 80048e8:	430b      	orrs	r3, r1
 80048ea:	f022 027f 	bic.w	r2, r2, #127	; 0x7f
 80048ee:	4313      	orrs	r3, r2
 80048f0:	6043      	str	r3, [r0, #4]
 80048f2:	b004      	add	sp, #16
 80048f4:	2000      	movs	r0, #0
 80048f6:	4770      	bx	lr

080048f8 <SDIO_ReadFIFO>:
 80048f8:	f8d0 0080 	ldr.w	r0, [r0, #128]	; 0x80
 80048fc:	4770      	bx	lr

080048fe <SDIO_WriteFIFO>:
 80048fe:	680b      	ldr	r3, [r1, #0]
 8004900:	f8c0 3080 	str.w	r3, [r0, #128]	; 0x80
 8004904:	2000      	movs	r0, #0
 8004906:	4770      	bx	lr

08004908 <SDIO_PowerState_ON>:
 8004908:	b508      	push	{r3, lr}
 800490a:	2303      	movs	r3, #3
 800490c:	6003      	str	r3, [r0, #0]
 800490e:	2002      	movs	r0, #2
 8004910:	f7fd fbda 	bl	80020c8 <HAL_Delay>
 8004914:	2000      	movs	r0, #0
 8004916:	bd08      	pop	{r3, pc}

08004918 <SDIO_GetPowerState>:
 8004918:	6800      	ldr	r0, [r0, #0]
 800491a:	f000 0003 	and.w	r0, r0, #3
 800491e:	4770      	bx	lr

08004920 <SDIO_SendCommand>:
 8004920:	680b      	ldr	r3, [r1, #0]
 8004922:	b510      	push	{r4, lr}
 8004924:	6083      	str	r3, [r0, #8]
 8004926:	e9d1 3401 	ldrd	r3, r4, [r1, #4]
 800492a:	68c2      	ldr	r2, [r0, #12]
 800492c:	4323      	orrs	r3, r4
 800492e:	68cc      	ldr	r4, [r1, #12]
 8004930:	6909      	ldr	r1, [r1, #16]
 8004932:	4323      	orrs	r3, r4
 8004934:	f422 627f 	bic.w	r2, r2, #4080	; 0xff0
 8004938:	430b      	orrs	r3, r1
 800493a:	f022 020f 	bic.w	r2, r2, #15
 800493e:	4313      	orrs	r3, r2
 8004940:	60c3      	str	r3, [r0, #12]
 8004942:	2000      	movs	r0, #0
 8004944:	bd10      	pop	{r4, pc}

08004946 <SDIO_GetResponse>:
 8004946:	3014      	adds	r0, #20
 8004948:	5840      	ldr	r0, [r0, r1]
 800494a:	4770      	bx	lr

0800494c <SDIO_ConfigData>:
 800494c:	680b      	ldr	r3, [r1, #0]
 800494e:	b510      	push	{r4, lr}
 8004950:	6243      	str	r3, [r0, #36]	; 0x24
 8004952:	684b      	ldr	r3, [r1, #4]
 8004954:	6283      	str	r3, [r0, #40]	; 0x28
 8004956:	e9d1 3402 	ldrd	r3, r4, [r1, #8]
 800495a:	4323      	orrs	r3, r4
 800495c:	690c      	ldr	r4, [r1, #16]
 800495e:	6ac2      	ldr	r2, [r0, #44]	; 0x2c
 8004960:	6949      	ldr	r1, [r1, #20]
 8004962:	4323      	orrs	r3, r4
 8004964:	430b      	orrs	r3, r1
 8004966:	f022 02f7 	bic.w	r2, r2, #247	; 0xf7
 800496a:	4313      	orrs	r3, r2
 800496c:	62c3      	str	r3, [r0, #44]	; 0x2c
 800496e:	2000      	movs	r0, #0
 8004970:	bd10      	pop	{r4, pc}

08004972 <SDMMC_CmdBlockLength>:
 8004972:	b530      	push	{r4, r5, lr}
 8004974:	b087      	sub	sp, #28
 8004976:	2510      	movs	r5, #16
 8004978:	2340      	movs	r3, #64	; 0x40
 800497a:	e9cd 5302 	strd	r5, r3, [sp, #8]
 800497e:	4604      	mov	r4, r0
 8004980:	f44f 6380 	mov.w	r3, #1024	; 0x400
 8004984:	9101      	str	r1, [sp, #4]
 8004986:	2200      	movs	r2, #0
 8004988:	a901      	add	r1, sp, #4
 800498a:	e9cd 2304 	strd	r2, r3, [sp, #16]
 800498e:	f7ff ffc7 	bl	8004920 <SDIO_SendCommand>
 8004992:	f241 3288 	movw	r2, #5000	; 0x1388
 8004996:	4629      	mov	r1, r5
 8004998:	4620      	mov	r0, r4
 800499a:	f7ff ff01 	bl	80047a0 <SDMMC_GetCmdResp1>
 800499e:	b007      	add	sp, #28
 80049a0:	bd30      	pop	{r4, r5, pc}

080049a2 <SDMMC_CmdReadSingleBlock>:
 80049a2:	b530      	push	{r4, r5, lr}
 80049a4:	b087      	sub	sp, #28
 80049a6:	2511      	movs	r5, #17
 80049a8:	2340      	movs	r3, #64	; 0x40
 80049aa:	e9cd 5302 	strd	r5, r3, [sp, #8]
 80049ae:	4604      	mov	r4, r0
 80049b0:	f44f 6380 	mov.w	r3, #1024	; 0x400
 80049b4:	9101      	str	r1, [sp, #4]
 80049b6:	2200      	movs	r2, #0
 80049b8:	a901      	add	r1, sp, #4
 80049ba:	e9cd 2304 	strd	r2, r3, [sp, #16]
 80049be:	f7ff ffaf 	bl	8004920 <SDIO_SendCommand>
 80049c2:	f241 3288 	movw	r2, #5000	; 0x1388
 80049c6:	4629      	mov	r1, r5
 80049c8:	4620      	mov	r0, r4
 80049ca:	f7ff fee9 	bl	80047a0 <SDMMC_GetCmdResp1>
 80049ce:	b007      	add	sp, #28
 80049d0:	bd30      	pop	{r4, r5, pc}

080049d2 <SDMMC_CmdReadMultiBlock>:
 80049d2:	b530      	push	{r4, r5, lr}
 80049d4:	b087      	sub	sp, #28
 80049d6:	2512      	movs	r5, #18
 80049d8:	2340      	movs	r3, #64	; 0x40
 80049da:	e9cd 5302 	strd	r5, r3, [sp, #8]
 80049de:	4604      	mov	r4, r0
 80049e0:	f44f 6380 	mov.w	r3, #1024	; 0x400
 80049e4:	9101      	str	r1, [sp, #4]
 80049e6:	2200      	movs	r2, #0
 80049e8:	a901      	add	r1, sp, #4
 80049ea:	e9cd 2304 	strd	r2, r3, [sp, #16]
 80049ee:	f7ff ff97 	bl	8004920 <SDIO_SendCommand>
 80049f2:	f241 3288 	movw	r2, #5000	; 0x1388
 80049f6:	4629      	mov	r1, r5
 80049f8:	4620      	mov	r0, r4
 80049fa:	f7ff fed1 	bl	80047a0 <SDMMC_GetCmdResp1>
 80049fe:	b007      	add	sp, #28
 8004a00:	bd30      	pop	{r4, r5, pc}

08004a02 <SDMMC_CmdWriteSingleBlock>:
 8004a02:	b530      	push	{r4, r5, lr}
 8004a04:	b087      	sub	sp, #28
 8004a06:	2518      	movs	r5, #24
 8004a08:	2340      	movs	r3, #64	; 0x40
 8004a0a:	e9cd 5302 	strd	r5, r3, [sp, #8]
 8004a0e:	4604      	mov	r4, r0
 8004a10:	f44f 6380 	mov.w	r3, #1024	; 0x400
 8004a14:	9101      	str	r1, [sp, #4]
 8004a16:	2200      	movs	r2, #0
 8004a18:	a901      	add	r1, sp, #4
 8004a1a:	e9cd 2304 	strd	r2, r3, [sp, #16]
 8004a1e:	f7ff ff7f 	bl	8004920 <SDIO_SendCommand>
 8004a22:	f241 3288 	movw	r2, #5000	; 0x1388
 8004a26:	4629      	mov	r1, r5
 8004a28:	4620      	mov	r0, r4
 8004a2a:	f7ff feb9 	bl	80047a0 <SDMMC_GetCmdResp1>
 8004a2e:	b007      	add	sp, #28
 8004a30:	bd30      	pop	{r4, r5, pc}

08004a32 <SDMMC_CmdWriteMultiBlock>:
 8004a32:	b530      	push	{r4, r5, lr}
 8004a34:	b087      	sub	sp, #28
 8004a36:	2519      	movs	r5, #25
 8004a38:	2340      	movs	r3, #64	; 0x40
 8004a3a:	e9cd 5302 	strd	r5, r3, [sp, #8]
 8004a3e:	4604      	mov	r4, r0
 8004a40:	f44f 6380 	mov.w	r3, #1024	; 0x400
 8004a44:	9101      	str	r1, [sp, #4]
 8004a46:	2200      	movs	r2, #0
 8004a48:	a901      	add	r1, sp, #4
 8004a4a:	e9cd 2304 	strd	r2, r3, [sp, #16]
 8004a4e:	f7ff ff67 	bl	8004920 <SDIO_SendCommand>
 8004a52:	f241 3288 	movw	r2, #5000	; 0x1388
 8004a56:	4629      	mov	r1, r5
 8004a58:	4620      	mov	r0, r4
 8004a5a:	f7ff fea1 	bl	80047a0 <SDMMC_GetCmdResp1>
 8004a5e:	b007      	add	sp, #28
 8004a60:	bd30      	pop	{r4, r5, pc}
	...

08004a64 <SDMMC_CmdStopTransfer>:
 8004a64:	b530      	push	{r4, r5, lr}
 8004a66:	2300      	movs	r3, #0
 8004a68:	b087      	sub	sp, #28
 8004a6a:	250c      	movs	r5, #12
 8004a6c:	2240      	movs	r2, #64	; 0x40
 8004a6e:	e9cd 2303 	strd	r2, r3, [sp, #12]
 8004a72:	e9cd 3501 	strd	r3, r5, [sp, #4]
 8004a76:	4604      	mov	r4, r0
 8004a78:	f44f 6380 	mov.w	r3, #1024	; 0x400
 8004a7c:	a901      	add	r1, sp, #4
 8004a7e:	9305      	str	r3, [sp, #20]
 8004a80:	f7ff ff4e 	bl	8004920 <SDIO_SendCommand>
 8004a84:	4a03      	ldr	r2, [pc, #12]	; (8004a94 <SDMMC_CmdStopTransfer+0x30>)
 8004a86:	4629      	mov	r1, r5
 8004a88:	4620      	mov	r0, r4
 8004a8a:	f7ff fe89 	bl	80047a0 <SDMMC_GetCmdResp1>
 8004a8e:	b007      	add	sp, #28
 8004a90:	bd30      	pop	{r4, r5, pc}
 8004a92:	bf00      	nop
 8004a94:	05f5e100 	.word	0x05f5e100

08004a98 <SDMMC_CmdSelDesel>:
 8004a98:	b530      	push	{r4, r5, lr}
 8004a9a:	b087      	sub	sp, #28
 8004a9c:	2507      	movs	r5, #7
 8004a9e:	2340      	movs	r3, #64	; 0x40
 8004aa0:	e9cd 5302 	strd	r5, r3, [sp, #8]
 8004aa4:	4604      	mov	r4, r0
 8004aa6:	f44f 6380 	mov.w	r3, #1024	; 0x400
 8004aaa:	9201      	str	r2, [sp, #4]
 8004aac:	a901      	add	r1, sp, #4
 8004aae:	2200      	movs	r2, #0
 8004ab0:	e9cd 2304 	strd	r2, r3, [sp, #16]
 8004ab4:	f7ff ff34 	bl	8004920 <SDIO_SendCommand>
 8004ab8:	f241 3288 	movw	r2, #5000	; 0x1388
 8004abc:	4629      	mov	r1, r5
 8004abe:	4620      	mov	r0, r4
 8004ac0:	f7ff fe6e 	bl	80047a0 <SDMMC_GetCmdResp1>
 8004ac4:	b007      	add	sp, #28
 8004ac6:	bd30      	pop	{r4, r5, pc}

08004ac8 <SDMMC_CmdGoIdleState>:
 8004ac8:	b510      	push	{r4, lr}
 8004aca:	2300      	movs	r3, #0
 8004acc:	b086      	sub	sp, #24
 8004ace:	e9cd 3301 	strd	r3, r3, [sp, #4]
 8004ad2:	e9cd 3303 	strd	r3, r3, [sp, #12]
 8004ad6:	a901      	add	r1, sp, #4
 8004ad8:	f44f 6380 	mov.w	r3, #1024	; 0x400
 8004adc:	9305      	str	r3, [sp, #20]
 8004ade:	4604      	mov	r4, r0
 8004ae0:	f7ff ff1e 	bl	8004920 <SDIO_SendCommand>
 8004ae4:	4b0a      	ldr	r3, [pc, #40]	; (8004b10 <SDMMC_CmdGoIdleState+0x48>)
 8004ae6:	f44f 52fa 	mov.w	r2, #8000	; 0x1f40
 8004aea:	681b      	ldr	r3, [r3, #0]
 8004aec:	fbb3 f2f2 	udiv	r2, r3, r2
 8004af0:	f241 3388 	movw	r3, #5000	; 0x1388
 8004af4:	4353      	muls	r3, r2
 8004af6:	3b01      	subs	r3, #1
 8004af8:	d307      	bcc.n	8004b0a <SDMMC_CmdGoIdleState+0x42>
 8004afa:	6b62      	ldr	r2, [r4, #52]	; 0x34
 8004afc:	0612      	lsls	r2, r2, #24
 8004afe:	d5fa      	bpl.n	8004af6 <SDMMC_CmdGoIdleState+0x2e>
 8004b00:	23c5      	movs	r3, #197	; 0xc5
 8004b02:	63a3      	str	r3, [r4, #56]	; 0x38
 8004b04:	2000      	movs	r0, #0
 8004b06:	b006      	add	sp, #24
 8004b08:	bd10      	pop	{r4, pc}
 8004b0a:	f04f 4000 	mov.w	r0, #2147483648	; 0x80000000
 8004b0e:	e7fa      	b.n	8004b06 <SDMMC_CmdGoIdleState+0x3e>
 8004b10:	20000000 	.word	0x20000000

08004b14 <SDMMC_CmdOperCond>:
 8004b14:	b510      	push	{r4, lr}
 8004b16:	f44f 7cd5 	mov.w	ip, #426	; 0x1aa
 8004b1a:	b086      	sub	sp, #24
 8004b1c:	2308      	movs	r3, #8
 8004b1e:	e9cd c301 	strd	ip, r3, [sp, #4]
 8004b22:	f04f 0e40 	mov.w	lr, #64	; 0x40
 8004b26:	2300      	movs	r3, #0
 8004b28:	e9cd e303 	strd	lr, r3, [sp, #12]
 8004b2c:	a901      	add	r1, sp, #4
 8004b2e:	f44f 6380 	mov.w	r3, #1024	; 0x400
 8004b32:	9305      	str	r3, [sp, #20]
 8004b34:	4604      	mov	r4, r0
 8004b36:	f7ff fef3 	bl	8004920 <SDIO_SendCommand>
 8004b3a:	4b13      	ldr	r3, [pc, #76]	; (8004b88 <SDMMC_CmdOperCond+0x74>)
 8004b3c:	f44f 52fa 	mov.w	r2, #8000	; 0x1f40
 8004b40:	681b      	ldr	r3, [r3, #0]
 8004b42:	fbb3 f2f2 	udiv	r2, r3, r2
 8004b46:	f241 3388 	movw	r3, #5000	; 0x1388
 8004b4a:	4353      	muls	r3, r2
 8004b4c:	3b01      	subs	r3, #1
 8004b4e:	d318      	bcc.n	8004b82 <SDMMC_CmdOperCond+0x6e>
 8004b50:	6b62      	ldr	r2, [r4, #52]	; 0x34
 8004b52:	f012 0f45 	tst.w	r2, #69	; 0x45
 8004b56:	d0f9      	beq.n	8004b4c <SDMMC_CmdOperCond+0x38>
 8004b58:	0511      	lsls	r1, r2, #20
 8004b5a:	d4f7      	bmi.n	8004b4c <SDMMC_CmdOperCond+0x38>
 8004b5c:	6b63      	ldr	r3, [r4, #52]	; 0x34
 8004b5e:	075a      	lsls	r2, r3, #29
 8004b60:	d503      	bpl.n	8004b6a <SDMMC_CmdOperCond+0x56>
 8004b62:	2004      	movs	r0, #4
 8004b64:	63a0      	str	r0, [r4, #56]	; 0x38
 8004b66:	b006      	add	sp, #24
 8004b68:	bd10      	pop	{r4, pc}
 8004b6a:	6b60      	ldr	r0, [r4, #52]	; 0x34
 8004b6c:	f010 0001 	ands.w	r0, r0, #1
 8004b70:	d002      	beq.n	8004b78 <SDMMC_CmdOperCond+0x64>
 8004b72:	2301      	movs	r3, #1
 8004b74:	63a3      	str	r3, [r4, #56]	; 0x38
 8004b76:	e7f6      	b.n	8004b66 <SDMMC_CmdOperCond+0x52>
 8004b78:	6b63      	ldr	r3, [r4, #52]	; 0x34
 8004b7a:	065b      	lsls	r3, r3, #25
 8004b7c:	d5f3      	bpl.n	8004b66 <SDMMC_CmdOperCond+0x52>
 8004b7e:	2340      	movs	r3, #64	; 0x40
 8004b80:	e7f8      	b.n	8004b74 <SDMMC_CmdOperCond+0x60>
 8004b82:	f04f 4000 	mov.w	r0, #2147483648	; 0x80000000
 8004b86:	e7ee      	b.n	8004b66 <SDMMC_CmdOperCond+0x52>
 8004b88:	20000000 	.word	0x20000000

08004b8c <SDMMC_CmdAppCommand>:
 8004b8c:	b530      	push	{r4, r5, lr}
 8004b8e:	b087      	sub	sp, #28
 8004b90:	2537      	movs	r5, #55	; 0x37
 8004b92:	2340      	movs	r3, #64	; 0x40
 8004b94:	e9cd 5302 	strd	r5, r3, [sp, #8]
 8004b98:	4604      	mov	r4, r0
 8004b9a:	f44f 6380 	mov.w	r3, #1024	; 0x400
 8004b9e:	9101      	str	r1, [sp, #4]
 8004ba0:	2200      	movs	r2, #0
 8004ba2:	a901      	add	r1, sp, #4
 8004ba4:	e9cd 2304 	strd	r2, r3, [sp, #16]
 8004ba8:	f7ff feba 	bl	8004920 <SDIO_SendCommand>
 8004bac:	f241 3288 	movw	r2, #5000	; 0x1388
 8004bb0:	4629      	mov	r1, r5
 8004bb2:	4620      	mov	r0, r4
 8004bb4:	f7ff fdf4 	bl	80047a0 <SDMMC_GetCmdResp1>
 8004bb8:	b007      	add	sp, #28
 8004bba:	bd30      	pop	{r4, r5, pc}

08004bbc <SDMMC_CmdAppOperCommand>:
 8004bbc:	b510      	push	{r4, lr}
 8004bbe:	f041 4100 	orr.w	r1, r1, #2147483648	; 0x80000000
 8004bc2:	b086      	sub	sp, #24
 8004bc4:	2229      	movs	r2, #41	; 0x29
 8004bc6:	f441 1180 	orr.w	r1, r1, #1048576	; 0x100000
 8004bca:	2340      	movs	r3, #64	; 0x40
 8004bcc:	e9cd 2302 	strd	r2, r3, [sp, #8]
 8004bd0:	9101      	str	r1, [sp, #4]
 8004bd2:	f44f 6380 	mov.w	r3, #1024	; 0x400
 8004bd6:	2100      	movs	r1, #0
 8004bd8:	e9cd 1304 	strd	r1, r3, [sp, #16]
 8004bdc:	4604      	mov	r4, r0
 8004bde:	a901      	add	r1, sp, #4
 8004be0:	f7ff fe9e 	bl	8004920 <SDIO_SendCommand>
 8004be4:	4620      	mov	r0, r4
 8004be6:	f7ff fdbb 	bl	8004760 <SDMMC_GetCmdResp3>
 8004bea:	b006      	add	sp, #24
 8004bec:	bd10      	pop	{r4, pc}

08004bee <SDMMC_CmdBusWidth>:
 8004bee:	b530      	push	{r4, r5, lr}
 8004bf0:	b087      	sub	sp, #28
 8004bf2:	2506      	movs	r5, #6
 8004bf4:	2340      	movs	r3, #64	; 0x40
 8004bf6:	e9cd 5302 	strd	r5, r3, [sp, #8]
 8004bfa:	4604      	mov	r4, r0
 8004bfc:	f44f 6380 	mov.w	r3, #1024	; 0x400
 8004c00:	9101      	str	r1, [sp, #4]
 8004c02:	2200      	movs	r2, #0
 8004c04:	a901      	add	r1, sp, #4
 8004c06:	e9cd 2304 	strd	r2, r3, [sp, #16]
 8004c0a:	f7ff fe89 	bl	8004920 <SDIO_SendCommand>
 8004c0e:	f241 3288 	movw	r2, #5000	; 0x1388
 8004c12:	4629      	mov	r1, r5
 8004c14:	4620      	mov	r0, r4
 8004c16:	f7ff fdc3 	bl	80047a0 <SDMMC_GetCmdResp1>
 8004c1a:	b007      	add	sp, #28
 8004c1c:	bd30      	pop	{r4, r5, pc}

08004c1e <SDMMC_CmdSendSCR>:
 8004c1e:	b530      	push	{r4, r5, lr}
 8004c20:	2300      	movs	r3, #0
 8004c22:	b087      	sub	sp, #28
 8004c24:	2533      	movs	r5, #51	; 0x33
 8004c26:	2240      	movs	r2, #64	; 0x40
 8004c28:	e9cd 2303 	strd	r2, r3, [sp, #12]
 8004c2c:	e9cd 3501 	strd	r3, r5, [sp, #4]
 8004c30:	4604      	mov	r4, r0
 8004c32:	f44f 6380 	mov.w	r3, #1024	; 0x400
 8004c36:	a901      	add	r1, sp, #4
 8004c38:	9305      	str	r3, [sp, #20]
 8004c3a:	f7ff fe71 	bl	8004920 <SDIO_SendCommand>
 8004c3e:	f241 3288 	movw	r2, #5000	; 0x1388
 8004c42:	4629      	mov	r1, r5
 8004c44:	4620      	mov	r0, r4
 8004c46:	f7ff fdab 	bl	80047a0 <SDMMC_GetCmdResp1>
 8004c4a:	b007      	add	sp, #28
 8004c4c:	bd30      	pop	{r4, r5, pc}

08004c4e <SDMMC_CmdSendCID>:
 8004c4e:	b510      	push	{r4, lr}
 8004c50:	2300      	movs	r3, #0
 8004c52:	b086      	sub	sp, #24
 8004c54:	2202      	movs	r2, #2
 8004c56:	e9cd 3201 	strd	r3, r2, [sp, #4]
 8004c5a:	22c0      	movs	r2, #192	; 0xc0
 8004c5c:	e9cd 2303 	strd	r2, r3, [sp, #12]
 8004c60:	4604      	mov	r4, r0
 8004c62:	f44f 6380 	mov.w	r3, #1024	; 0x400
 8004c66:	a901      	add	r1, sp, #4
 8004c68:	9305      	str	r3, [sp, #20]
 8004c6a:	f7ff fe59 	bl	8004920 <SDIO_SendCommand>
 8004c6e:	4620      	mov	r0, r4
 8004c70:	f7ff fd50 	bl	8004714 <SDMMC_GetCmdResp2>
 8004c74:	b006      	add	sp, #24
 8004c76:	bd10      	pop	{r4, pc}

08004c78 <SDMMC_CmdSendCSD>:
 8004c78:	b510      	push	{r4, lr}
 8004c7a:	b086      	sub	sp, #24
 8004c7c:	2209      	movs	r2, #9
 8004c7e:	23c0      	movs	r3, #192	; 0xc0
 8004c80:	e9cd 2302 	strd	r2, r3, [sp, #8]
 8004c84:	9101      	str	r1, [sp, #4]
 8004c86:	f44f 6380 	mov.w	r3, #1024	; 0x400
 8004c8a:	2100      	movs	r1, #0
 8004c8c:	e9cd 1304 	strd	r1, r3, [sp, #16]
 8004c90:	4604      	mov	r4, r0
 8004c92:	a901      	add	r1, sp, #4
 8004c94:	f7ff fe44 	bl	8004920 <SDIO_SendCommand>
 8004c98:	4620      	mov	r0, r4
 8004c9a:	f7ff fd3b 	bl	8004714 <SDMMC_GetCmdResp2>
 8004c9e:	b006      	add	sp, #24
 8004ca0:	bd10      	pop	{r4, pc}
	...

08004ca4 <SDMMC_CmdSetRelAdd>:
 8004ca4:	b530      	push	{r4, r5, lr}
 8004ca6:	2300      	movs	r3, #0
 8004ca8:	b087      	sub	sp, #28
 8004caa:	2203      	movs	r2, #3
 8004cac:	e9cd 3201 	strd	r3, r2, [sp, #4]
 8004cb0:	2240      	movs	r2, #64	; 0x40
 8004cb2:	e9cd 2303 	strd	r2, r3, [sp, #12]
 8004cb6:	460d      	mov	r5, r1
 8004cb8:	f44f 6380 	mov.w	r3, #1024	; 0x400
 8004cbc:	a901      	add	r1, sp, #4
 8004cbe:	9305      	str	r3, [sp, #20]
 8004cc0:	4604      	mov	r4, r0
 8004cc2:	f7ff fe2d 	bl	8004920 <SDIO_SendCommand>
 8004cc6:	4b1f      	ldr	r3, [pc, #124]	; (8004d44 <SDMMC_CmdSetRelAdd+0xa0>)
 8004cc8:	f44f 52fa 	mov.w	r2, #8000	; 0x1f40
 8004ccc:	681b      	ldr	r3, [r3, #0]
 8004cce:	fbb3 f2f2 	udiv	r2, r3, r2
 8004cd2:	f241 3388 	movw	r3, #5000	; 0x1388
 8004cd6:	4353      	muls	r3, r2
 8004cd8:	3b01      	subs	r3, #1
 8004cda:	d32a      	bcc.n	8004d32 <SDMMC_CmdSetRelAdd+0x8e>
 8004cdc:	6b62      	ldr	r2, [r4, #52]	; 0x34
 8004cde:	f012 0f45 	tst.w	r2, #69	; 0x45
 8004ce2:	d0f9      	beq.n	8004cd8 <SDMMC_CmdSetRelAdd+0x34>
 8004ce4:	0510      	lsls	r0, r2, #20
 8004ce6:	d4f7      	bmi.n	8004cd8 <SDMMC_CmdSetRelAdd+0x34>
 8004ce8:	6b63      	ldr	r3, [r4, #52]	; 0x34
 8004cea:	0759      	lsls	r1, r3, #29
 8004cec:	d503      	bpl.n	8004cf6 <SDMMC_CmdSetRelAdd+0x52>
 8004cee:	2004      	movs	r0, #4
 8004cf0:	63a0      	str	r0, [r4, #56]	; 0x38
 8004cf2:	b007      	add	sp, #28
 8004cf4:	bd30      	pop	{r4, r5, pc}
 8004cf6:	6b60      	ldr	r0, [r4, #52]	; 0x34
 8004cf8:	f010 0001 	ands.w	r0, r0, #1
 8004cfc:	d002      	beq.n	8004d04 <SDMMC_CmdSetRelAdd+0x60>
 8004cfe:	2301      	movs	r3, #1
 8004d00:	63a3      	str	r3, [r4, #56]	; 0x38
 8004d02:	e7f6      	b.n	8004cf2 <SDMMC_CmdSetRelAdd+0x4e>
 8004d04:	6923      	ldr	r3, [r4, #16]
 8004d06:	b2db      	uxtb	r3, r3
 8004d08:	2b03      	cmp	r3, #3
 8004d0a:	d115      	bne.n	8004d38 <SDMMC_CmdSetRelAdd+0x94>
 8004d0c:	23c5      	movs	r3, #197	; 0xc5
 8004d0e:	63a3      	str	r3, [r4, #56]	; 0x38
 8004d10:	6963      	ldr	r3, [r4, #20]
 8004d12:	f413 4060 	ands.w	r0, r3, #57344	; 0xe000
 8004d16:	d102      	bne.n	8004d1e <SDMMC_CmdSetRelAdd+0x7a>
 8004d18:	0c1b      	lsrs	r3, r3, #16
 8004d1a:	802b      	strh	r3, [r5, #0]
 8004d1c:	e7e9      	b.n	8004cf2 <SDMMC_CmdSetRelAdd+0x4e>
 8004d1e:	045a      	lsls	r2, r3, #17
 8004d20:	d40c      	bmi.n	8004d3c <SDMMC_CmdSetRelAdd+0x98>
 8004d22:	f413 4f00 	tst.w	r3, #32768	; 0x8000
 8004d26:	bf14      	ite	ne
 8004d28:	f44f 5080 	movne.w	r0, #4096	; 0x1000
 8004d2c:	f44f 3080 	moveq.w	r0, #65536	; 0x10000
 8004d30:	e7df      	b.n	8004cf2 <SDMMC_CmdSetRelAdd+0x4e>
 8004d32:	f04f 4000 	mov.w	r0, #2147483648	; 0x80000000
 8004d36:	e7dc      	b.n	8004cf2 <SDMMC_CmdSetRelAdd+0x4e>
 8004d38:	2001      	movs	r0, #1
 8004d3a:	e7da      	b.n	8004cf2 <SDMMC_CmdSetRelAdd+0x4e>
 8004d3c:	f44f 5000 	mov.w	r0, #8192	; 0x2000
 8004d40:	e7d7      	b.n	8004cf2 <SDMMC_CmdSetRelAdd+0x4e>
 8004d42:	bf00      	nop
 8004d44:	20000000 	.word	0x20000000

08004d48 <SDMMC_CmdSendStatus>:
 8004d48:	b530      	push	{r4, r5, lr}
 8004d4a:	b087      	sub	sp, #28
 8004d4c:	250d      	movs	r5, #13
 8004d4e:	2340      	movs	r3, #64	; 0x40
 8004d50:	e9cd 5302 	strd	r5, r3, [sp, #8]
 8004d54:	4604      	mov	r4, r0
 8004d56:	f44f 6380 	mov.w	r3, #1024	; 0x400
 8004d5a:	9101      	str	r1, [sp, #4]
 8004d5c:	2200      	movs	r2, #0
 8004d5e:	a901      	add	r1, sp, #4
 8004d60:	e9cd 2304 	strd	r2, r3, [sp, #16]
 8004d64:	f7ff fddc 	bl	8004920 <SDIO_SendCommand>
 8004d68:	f241 3288 	movw	r2, #5000	; 0x1388
 8004d6c:	4629      	mov	r1, r5
 8004d6e:	4620      	mov	r0, r4
 8004d70:	f7ff fd16 	bl	80047a0 <SDMMC_GetCmdResp1>
 8004d74:	b007      	add	sp, #28
 8004d76:	bd30      	pop	{r4, r5, pc}

08004d78 <USB_CoreReset>:
 8004d78:	4b0a      	ldr	r3, [pc, #40]	; (8004da4 <USB_CoreReset+0x2c>)
 8004d7a:	3b01      	subs	r3, #1
 8004d7c:	d00f      	beq.n	8004d9e <USB_CoreReset+0x26>
 8004d7e:	6902      	ldr	r2, [r0, #16]
 8004d80:	2a00      	cmp	r2, #0
 8004d82:	dafa      	bge.n	8004d7a <USB_CoreReset+0x2>
 8004d84:	6903      	ldr	r3, [r0, #16]
 8004d86:	4a07      	ldr	r2, [pc, #28]	; (8004da4 <USB_CoreReset+0x2c>)
 8004d88:	f043 0301 	orr.w	r3, r3, #1
 8004d8c:	6103      	str	r3, [r0, #16]
 8004d8e:	3a01      	subs	r2, #1
 8004d90:	d005      	beq.n	8004d9e <USB_CoreReset+0x26>
 8004d92:	6903      	ldr	r3, [r0, #16]
 8004d94:	f013 0301 	ands.w	r3, r3, #1
 8004d98:	d1f9      	bne.n	8004d8e <USB_CoreReset+0x16>
 8004d9a:	4618      	mov	r0, r3
 8004d9c:	4770      	bx	lr
 8004d9e:	2003      	movs	r0, #3
 8004da0:	4770      	bx	lr
 8004da2:	bf00      	nop
 8004da4:	00030d41 	.word	0x00030d41

08004da8 <USB_CoreInit>:
 8004da8:	b084      	sub	sp, #16
 8004daa:	b538      	push	{r3, r4, r5, lr}
 8004dac:	ad05      	add	r5, sp, #20
 8004dae:	e885 000e 	stmia.w	r5, {r1, r2, r3}
 8004db2:	9b0a      	ldr	r3, [sp, #40]	; 0x28
 8004db4:	2b01      	cmp	r3, #1
 8004db6:	4604      	mov	r4, r0
 8004db8:	d125      	bne.n	8004e06 <USB_CoreInit+0x5e>
 8004dba:	6b83      	ldr	r3, [r0, #56]	; 0x38
 8004dbc:	f423 3380 	bic.w	r3, r3, #65536	; 0x10000
 8004dc0:	6383      	str	r3, [r0, #56]	; 0x38
 8004dc2:	68c3      	ldr	r3, [r0, #12]
 8004dc4:	f423 0384 	bic.w	r3, r3, #4325376	; 0x420000
 8004dc8:	f023 0340 	bic.w	r3, r3, #64	; 0x40
 8004dcc:	60c3      	str	r3, [r0, #12]
 8004dce:	68c3      	ldr	r3, [r0, #12]
 8004dd0:	f423 1340 	bic.w	r3, r3, #3145728	; 0x300000
 8004dd4:	60c3      	str	r3, [r0, #12]
 8004dd6:	9b11      	ldr	r3, [sp, #68]	; 0x44
 8004dd8:	2b01      	cmp	r3, #1
 8004dda:	bf02      	ittt	eq
 8004ddc:	68c3      	ldreq	r3, [r0, #12]
 8004dde:	f443 1380 	orreq.w	r3, r3, #1048576	; 0x100000
 8004de2:	60c3      	streq	r3, [r0, #12]
 8004de4:	f7ff ffc8 	bl	8004d78 <USB_CoreReset>
 8004de8:	9b08      	ldr	r3, [sp, #32]
 8004dea:	2b01      	cmp	r3, #1
 8004dec:	d107      	bne.n	8004dfe <USB_CoreInit+0x56>
 8004dee:	68a3      	ldr	r3, [r4, #8]
 8004df0:	f043 0306 	orr.w	r3, r3, #6
 8004df4:	60a3      	str	r3, [r4, #8]
 8004df6:	68a3      	ldr	r3, [r4, #8]
 8004df8:	f043 0320 	orr.w	r3, r3, #32
 8004dfc:	60a3      	str	r3, [r4, #8]
 8004dfe:	e8bd 4038 	ldmia.w	sp!, {r3, r4, r5, lr}
 8004e02:	b004      	add	sp, #16
 8004e04:	4770      	bx	lr
 8004e06:	68c3      	ldr	r3, [r0, #12]
 8004e08:	f043 0340 	orr.w	r3, r3, #64	; 0x40
 8004e0c:	60c3      	str	r3, [r0, #12]
 8004e0e:	f7ff ffb3 	bl	8004d78 <USB_CoreReset>
 8004e12:	9b0e      	ldr	r3, [sp, #56]	; 0x38
 8004e14:	b923      	cbnz	r3, 8004e20 <USB_CoreInit+0x78>
 8004e16:	6ba3      	ldr	r3, [r4, #56]	; 0x38
 8004e18:	f443 3380 	orr.w	r3, r3, #65536	; 0x10000
 8004e1c:	63a3      	str	r3, [r4, #56]	; 0x38
 8004e1e:	e7e3      	b.n	8004de8 <USB_CoreInit+0x40>
 8004e20:	6ba3      	ldr	r3, [r4, #56]	; 0x38
 8004e22:	f423 3380 	bic.w	r3, r3, #65536	; 0x10000
 8004e26:	e7f9      	b.n	8004e1c <USB_CoreInit+0x74>

08004e28 <USB_DisableGlobalInt>:
 8004e28:	6883      	ldr	r3, [r0, #8]
 8004e2a:	f023 0301 	bic.w	r3, r3, #1
 8004e2e:	6083      	str	r3, [r0, #8]
 8004e30:	2000      	movs	r0, #0
 8004e32:	4770      	bx	lr

08004e34 <USB_SetCurrentMode>:
 8004e34:	b508      	push	{r3, lr}
 8004e36:	68c3      	ldr	r3, [r0, #12]
 8004e38:	2901      	cmp	r1, #1
 8004e3a:	f023 43c0 	bic.w	r3, r3, #1610612736	; 0x60000000
 8004e3e:	60c3      	str	r3, [r0, #12]
 8004e40:	d108      	bne.n	8004e54 <USB_SetCurrentMode+0x20>
 8004e42:	68c3      	ldr	r3, [r0, #12]
 8004e44:	f043 5300 	orr.w	r3, r3, #536870912	; 0x20000000
 8004e48:	60c3      	str	r3, [r0, #12]
 8004e4a:	2032      	movs	r0, #50	; 0x32
 8004e4c:	f7fd f93c 	bl	80020c8 <HAL_Delay>
 8004e50:	2000      	movs	r0, #0
 8004e52:	bd08      	pop	{r3, pc}
 8004e54:	b919      	cbnz	r1, 8004e5e <USB_SetCurrentMode+0x2a>
 8004e56:	68c3      	ldr	r3, [r0, #12]
 8004e58:	f043 4380 	orr.w	r3, r3, #1073741824	; 0x40000000
 8004e5c:	e7f4      	b.n	8004e48 <USB_SetCurrentMode+0x14>
 8004e5e:	2001      	movs	r0, #1
 8004e60:	e7f7      	b.n	8004e52 <USB_SetCurrentMode+0x1e>
	...

08004e64 <USB_FlushTxFifo>:
 8004e64:	0189      	lsls	r1, r1, #6
 8004e66:	f041 0120 	orr.w	r1, r1, #32
 8004e6a:	4a06      	ldr	r2, [pc, #24]	; (8004e84 <USB_FlushTxFifo+0x20>)
 8004e6c:	6101      	str	r1, [r0, #16]
 8004e6e:	3a01      	subs	r2, #1
 8004e70:	d005      	beq.n	8004e7e <USB_FlushTxFifo+0x1a>
 8004e72:	6903      	ldr	r3, [r0, #16]
 8004e74:	f013 0320 	ands.w	r3, r3, #32
 8004e78:	d1f9      	bne.n	8004e6e <USB_FlushTxFifo+0xa>
 8004e7a:	4618      	mov	r0, r3
 8004e7c:	4770      	bx	lr
 8004e7e:	2003      	movs	r0, #3
 8004e80:	4770      	bx	lr
 8004e82:	bf00      	nop
 8004e84:	00030d41 	.word	0x00030d41

08004e88 <USB_FlushRxFifo>:
 8004e88:	2310      	movs	r3, #16
 8004e8a:	4a06      	ldr	r2, [pc, #24]	; (8004ea4 <USB_FlushRxFifo+0x1c>)
 8004e8c:	6103      	str	r3, [r0, #16]
 8004e8e:	3a01      	subs	r2, #1
 8004e90:	d005      	beq.n	8004e9e <USB_FlushRxFifo+0x16>
 8004e92:	6903      	ldr	r3, [r0, #16]
 8004e94:	f013 0310 	ands.w	r3, r3, #16
 8004e98:	d1f9      	bne.n	8004e8e <USB_FlushRxFifo+0x6>
 8004e9a:	4618      	mov	r0, r3
 8004e9c:	4770      	bx	lr
 8004e9e:	2003      	movs	r0, #3
 8004ea0:	4770      	bx	lr
 8004ea2:	bf00      	nop
 8004ea4:	00030d41 	.word	0x00030d41

08004ea8 <USB_SetDevSpeed>:
 8004ea8:	f8d0 3800 	ldr.w	r3, [r0, #2048]	; 0x800
 8004eac:	4319      	orrs	r1, r3
 8004eae:	f8c0 1800 	str.w	r1, [r0, #2048]	; 0x800
 8004eb2:	2000      	movs	r0, #0
 8004eb4:	4770      	bx	lr
	...

08004eb8 <USB_DevInit>:
 8004eb8:	b084      	sub	sp, #16
 8004eba:	e92d 43f8 	stmdb	sp!, {r3, r4, r5, r6, r7, r8, r9, lr}
 8004ebe:	4604      	mov	r4, r0
 8004ec0:	a809      	add	r0, sp, #36	; 0x24
 8004ec2:	e880 000e 	stmia.w	r0, {r1, r2, r3}
 8004ec6:	2300      	movs	r3, #0
 8004ec8:	9d13      	ldr	r5, [sp, #76]	; 0x4c
 8004eca:	460e      	mov	r6, r1
 8004ecc:	4619      	mov	r1, r3
 8004ece:	f103 0240 	add.w	r2, r3, #64	; 0x40
 8004ed2:	eb04 0282 	add.w	r2, r4, r2, lsl #2
 8004ed6:	3301      	adds	r3, #1
 8004ed8:	2b0f      	cmp	r3, #15
 8004eda:	6051      	str	r1, [r2, #4]
 8004edc:	d1f7      	bne.n	8004ece <USB_DevInit+0x16>
 8004ede:	f504 6700 	add.w	r7, r4, #2048	; 0x800
 8004ee2:	2d00      	cmp	r5, #0
 8004ee4:	d16c      	bne.n	8004fc0 <USB_DevInit+0x108>
 8004ee6:	687b      	ldr	r3, [r7, #4]
 8004ee8:	f043 0302 	orr.w	r3, r3, #2
 8004eec:	607b      	str	r3, [r7, #4]
 8004eee:	6ba3      	ldr	r3, [r4, #56]	; 0x38
 8004ef0:	f443 1300 	orr.w	r3, r3, #2097152	; 0x200000
 8004ef4:	63a3      	str	r3, [r4, #56]	; 0x38
 8004ef6:	6ba3      	ldr	r3, [r4, #56]	; 0x38
 8004ef8:	f423 2300 	bic.w	r3, r3, #524288	; 0x80000
 8004efc:	63a3      	str	r3, [r4, #56]	; 0x38
 8004efe:	6ba3      	ldr	r3, [r4, #56]	; 0x38
 8004f00:	f423 2380 	bic.w	r3, r3, #262144	; 0x40000
 8004f04:	63a3      	str	r3, [r4, #56]	; 0x38
 8004f06:	2300      	movs	r3, #0
 8004f08:	f8c4 3e00 	str.w	r3, [r4, #3584]	; 0xe00
 8004f0c:	f8d4 3800 	ldr.w	r3, [r4, #2048]	; 0x800
 8004f10:	f8c4 3800 	str.w	r3, [r4, #2048]	; 0x800
 8004f14:	9b0e      	ldr	r3, [sp, #56]	; 0x38
 8004f16:	2b01      	cmp	r3, #1
 8004f18:	d15c      	bne.n	8004fd4 <USB_DevInit+0x11c>
 8004f1a:	990b      	ldr	r1, [sp, #44]	; 0x2c
 8004f1c:	2900      	cmp	r1, #0
 8004f1e:	d157      	bne.n	8004fd0 <USB_DevInit+0x118>
 8004f20:	4620      	mov	r0, r4
 8004f22:	f7ff ffc1 	bl	8004ea8 <USB_SetDevSpeed>
 8004f26:	2110      	movs	r1, #16
 8004f28:	4620      	mov	r0, r4
 8004f2a:	f7ff ff9b 	bl	8004e64 <USB_FlushTxFifo>
 8004f2e:	4601      	mov	r1, r0
 8004f30:	4620      	mov	r0, r4
 8004f32:	f7ff ffa9 	bl	8004e88 <USB_FlushRxFifo>
 8004f36:	4308      	orrs	r0, r1
 8004f38:	b2c0      	uxtb	r0, r0
 8004f3a:	2300      	movs	r3, #0
 8004f3c:	3800      	subs	r0, #0
 8004f3e:	613b      	str	r3, [r7, #16]
 8004f40:	bf18      	it	ne
 8004f42:	2001      	movne	r0, #1
 8004f44:	617b      	str	r3, [r7, #20]
 8004f46:	f504 6210 	add.w	r2, r4, #2304	; 0x900
 8004f4a:	61fb      	str	r3, [r7, #28]
 8004f4c:	4619      	mov	r1, r3
 8004f4e:	f04f 4c90 	mov.w	ip, #1207959552	; 0x48000000
 8004f52:	f04f 6e00 	mov.w	lr, #134217728	; 0x8000000
 8004f56:	f64f 387f 	movw	r8, #64383	; 0xfb7f
 8004f5a:	42b3      	cmp	r3, r6
 8004f5c:	d13c      	bne.n	8004fd8 <USB_DevInit+0x120>
 8004f5e:	2200      	movs	r2, #0
 8004f60:	f504 6330 	add.w	r3, r4, #2816	; 0xb00
 8004f64:	4611      	mov	r1, r2
 8004f66:	f04f 4c90 	mov.w	ip, #1207959552	; 0x48000000
 8004f6a:	f04f 6e00 	mov.w	lr, #134217728	; 0x8000000
 8004f6e:	f64f 387f 	movw	r8, #64383	; 0xfb7f
 8004f72:	42b2      	cmp	r2, r6
 8004f74:	d143      	bne.n	8004ffe <USB_DevInit+0x146>
 8004f76:	693b      	ldr	r3, [r7, #16]
 8004f78:	f423 7380 	bic.w	r3, r3, #256	; 0x100
 8004f7c:	613b      	str	r3, [r7, #16]
 8004f7e:	2300      	movs	r3, #0
 8004f80:	61a3      	str	r3, [r4, #24]
 8004f82:	f06f 4380 	mvn.w	r3, #1073741824	; 0x40000000
 8004f86:	6163      	str	r3, [r4, #20]
 8004f88:	9b0c      	ldr	r3, [sp, #48]	; 0x30
 8004f8a:	b91b      	cbnz	r3, 8004f94 <USB_DevInit+0xdc>
 8004f8c:	69a3      	ldr	r3, [r4, #24]
 8004f8e:	f043 0310 	orr.w	r3, r3, #16
 8004f92:	61a3      	str	r3, [r4, #24]
 8004f94:	69a2      	ldr	r2, [r4, #24]
 8004f96:	4b23      	ldr	r3, [pc, #140]	; (8005024 <USB_DevInit+0x16c>)
 8004f98:	4313      	orrs	r3, r2
 8004f9a:	61a3      	str	r3, [r4, #24]
 8004f9c:	9b0f      	ldr	r3, [sp, #60]	; 0x3c
 8004f9e:	b11b      	cbz	r3, 8004fa8 <USB_DevInit+0xf0>
 8004fa0:	69a3      	ldr	r3, [r4, #24]
 8004fa2:	f043 0308 	orr.w	r3, r3, #8
 8004fa6:	61a3      	str	r3, [r4, #24]
 8004fa8:	2d01      	cmp	r5, #1
 8004faa:	bf01      	itttt	eq
 8004fac:	69a3      	ldreq	r3, [r4, #24]
 8004fae:	f043 4380 	orreq.w	r3, r3, #1073741824	; 0x40000000
 8004fb2:	f043 0304 	orreq.w	r3, r3, #4
 8004fb6:	61a3      	streq	r3, [r4, #24]
 8004fb8:	e8bd 43f8 	ldmia.w	sp!, {r3, r4, r5, r6, r7, r8, r9, lr}
 8004fbc:	b004      	add	sp, #16
 8004fbe:	4770      	bx	lr
 8004fc0:	6ba3      	ldr	r3, [r4, #56]	; 0x38
 8004fc2:	f423 1300 	bic.w	r3, r3, #2097152	; 0x200000
 8004fc6:	63a3      	str	r3, [r4, #56]	; 0x38
 8004fc8:	6ba3      	ldr	r3, [r4, #56]	; 0x38
 8004fca:	f443 2300 	orr.w	r3, r3, #524288	; 0x80000
 8004fce:	e799      	b.n	8004f04 <USB_DevInit+0x4c>
 8004fd0:	4619      	mov	r1, r3
 8004fd2:	e7a5      	b.n	8004f20 <USB_DevInit+0x68>
 8004fd4:	2103      	movs	r1, #3
 8004fd6:	e7a3      	b.n	8004f20 <USB_DevInit+0x68>
 8004fd8:	f8d2 9000 	ldr.w	r9, [r2]
 8004fdc:	f1b9 0f00 	cmp.w	r9, #0
 8004fe0:	da0b      	bge.n	8004ffa <USB_DevInit+0x142>
 8004fe2:	b93b      	cbnz	r3, 8004ff4 <USB_DevInit+0x13c>
 8004fe4:	f8c2 e000 	str.w	lr, [r2]
 8004fe8:	6111      	str	r1, [r2, #16]
 8004fea:	3301      	adds	r3, #1
 8004fec:	f8c2 8008 	str.w	r8, [r2, #8]
 8004ff0:	3220      	adds	r2, #32
 8004ff2:	e7b2      	b.n	8004f5a <USB_DevInit+0xa2>
 8004ff4:	f8c2 c000 	str.w	ip, [r2]
 8004ff8:	e7f6      	b.n	8004fe8 <USB_DevInit+0x130>
 8004ffa:	6011      	str	r1, [r2, #0]
 8004ffc:	e7f4      	b.n	8004fe8 <USB_DevInit+0x130>
 8004ffe:	f8d3 9000 	ldr.w	r9, [r3]
 8005002:	f1b9 0f00 	cmp.w	r9, #0
 8005006:	da0b      	bge.n	8005020 <USB_DevInit+0x168>
 8005008:	b93a      	cbnz	r2, 800501a <USB_DevInit+0x162>
 800500a:	f8c3 e000 	str.w	lr, [r3]
 800500e:	6119      	str	r1, [r3, #16]
 8005010:	3201      	adds	r2, #1
 8005012:	f8c3 8008 	str.w	r8, [r3, #8]
 8005016:	3320      	adds	r3, #32
 8005018:	e7ab      	b.n	8004f72 <USB_DevInit+0xba>
 800501a:	f8c3 c000 	str.w	ip, [r3]
 800501e:	e7f6      	b.n	800500e <USB_DevInit+0x156>
 8005020:	6019      	str	r1, [r3, #0]
 8005022:	e7f4      	b.n	800500e <USB_DevInit+0x156>
 8005024:	803c3800 	.word	0x803c3800

08005028 <USB_DevDisconnect>:
 8005028:	f8d0 3e00 	ldr.w	r3, [r0, #3584]	; 0xe00
 800502c:	f023 0303 	bic.w	r3, r3, #3
 8005030:	f8c0 3e00 	str.w	r3, [r0, #3584]	; 0xe00
 8005034:	f8d0 3804 	ldr.w	r3, [r0, #2052]	; 0x804
 8005038:	f043 0302 	orr.w	r3, r3, #2
 800503c:	f8c0 3804 	str.w	r3, [r0, #2052]	; 0x804
 8005040:	2000      	movs	r0, #0
 8005042:	4770      	bx	lr

08005044 <MX_FATFS_Init>:
 8005044:	b508      	push	{r3, lr}
 8005046:	4903      	ldr	r1, [pc, #12]	; (8005054 <MX_FATFS_Init+0x10>)
 8005048:	4803      	ldr	r0, [pc, #12]	; (8005058 <MX_FATFS_Init+0x14>)
 800504a:	f000 f8f3 	bl	8005234 <FATFS_LinkDriver>
 800504e:	4b03      	ldr	r3, [pc, #12]	; (800505c <MX_FATFS_Init+0x18>)
 8005050:	7018      	strb	r0, [r3, #0]
 8005052:	bd08      	pop	{r3, pc}
 8005054:	2000087d 	.word	0x2000087d
 8005058:	080060cc 	.word	0x080060cc
 800505c:	2000087c 	.word	0x2000087c

08005060 <BSP_SD_ReadBlocks>:
 8005060:	b507      	push	{r0, r1, r2, lr}
 8005062:	9300      	str	r3, [sp, #0]
 8005064:	4613      	mov	r3, r2
 8005066:	460a      	mov	r2, r1
 8005068:	4601      	mov	r1, r0
 800506a:	4804      	ldr	r0, [pc, #16]	; (800507c <BSP_SD_ReadBlocks+0x1c>)
 800506c:	f7fe fcfe 	bl	8003a6c <HAL_SD_ReadBlocks>
 8005070:	3800      	subs	r0, #0
 8005072:	bf18      	it	ne
 8005074:	2001      	movne	r0, #1
 8005076:	b003      	add	sp, #12
 8005078:	f85d fb04 	ldr.w	pc, [sp], #4
 800507c:	20000724 	.word	0x20000724

08005080 <BSP_SD_WriteBlocks>:
 8005080:	b507      	push	{r0, r1, r2, lr}
 8005082:	9300      	str	r3, [sp, #0]
 8005084:	4613      	mov	r3, r2
 8005086:	460a      	mov	r2, r1
 8005088:	4601      	mov	r1, r0
 800508a:	4804      	ldr	r0, [pc, #16]	; (800509c <BSP_SD_WriteBlocks+0x1c>)
 800508c:	f7fe fdf2 	bl	8003c74 <HAL_SD_WriteBlocks>
 8005090:	3800      	subs	r0, #0
 8005092:	bf18      	it	ne
 8005094:	2001      	movne	r0, #1
 8005096:	b003      	add	sp, #12
 8005098:	f85d fb04 	ldr.w	pc, [sp], #4
 800509c:	20000724 	.word	0x20000724

080050a0 <BSP_SD_GetCardState>:
 80050a0:	b508      	push	{r3, lr}
 80050a2:	4803      	ldr	r0, [pc, #12]	; (80050b0 <BSP_SD_GetCardState+0x10>)
 80050a4:	f7ff f92a 	bl	80042fc <HAL_SD_GetCardState>
 80050a8:	3804      	subs	r0, #4
 80050aa:	bf18      	it	ne
 80050ac:	2001      	movne	r0, #1
 80050ae:	bd08      	pop	{r3, pc}
 80050b0:	20000724 	.word	0x20000724

080050b4 <BSP_SD_GetCardInfo>:
 80050b4:	4601      	mov	r1, r0
 80050b6:	4801      	ldr	r0, [pc, #4]	; (80050bc <BSP_SD_GetCardInfo+0x8>)
 80050b8:	f7ff b87b 	b.w	80041b2 <HAL_SD_GetCardInfo>
 80050bc:	20000724 	.word	0x20000724

080050c0 <BSP_SD_IsDetected>:
 80050c0:	b507      	push	{r0, r1, r2, lr}
 80050c2:	2301      	movs	r3, #1
 80050c4:	f88d 3007 	strb.w	r3, [sp, #7]
 80050c8:	f000 f81e 	bl	8005108 <BSP_PlatformIsDetected>
 80050cc:	b908      	cbnz	r0, 80050d2 <BSP_SD_IsDetected+0x12>
 80050ce:	f88d 0007 	strb.w	r0, [sp, #7]
 80050d2:	f89d 0007 	ldrb.w	r0, [sp, #7]
 80050d6:	b003      	add	sp, #12
 80050d8:	f85d fb04 	ldr.w	pc, [sp], #4

080050dc <BSP_SD_Init>:
 80050dc:	b508      	push	{r3, lr}
 80050de:	f7ff ffef 	bl	80050c0 <BSP_SD_IsDetected>
 80050e2:	2801      	cmp	r0, #1
 80050e4:	d10c      	bne.n	8005100 <BSP_SD_Init+0x24>
 80050e6:	4807      	ldr	r0, [pc, #28]	; (8005104 <BSP_SD_Init+0x28>)
 80050e8:	f7ff f848 	bl	800417c <HAL_SD_Init>
 80050ec:	b938      	cbnz	r0, 80050fe <BSP_SD_Init+0x22>
 80050ee:	4805      	ldr	r0, [pc, #20]	; (8005104 <BSP_SD_Init+0x28>)
 80050f0:	f44f 6100 	mov.w	r1, #2048	; 0x800
 80050f4:	f7ff f870 	bl	80041d8 <HAL_SD_ConfigWideBusOperation>
 80050f8:	3800      	subs	r0, #0
 80050fa:	bf18      	it	ne
 80050fc:	2001      	movne	r0, #1
 80050fe:	bd08      	pop	{r3, pc}
 8005100:	2001      	movs	r0, #1
 8005102:	e7fc      	b.n	80050fe <BSP_SD_Init+0x22>
 8005104:	20000724 	.word	0x20000724

08005108 <BSP_PlatformIsDetected>:
 8005108:	b508      	push	{r3, lr}
 800510a:	2120      	movs	r1, #32
 800510c:	4803      	ldr	r0, [pc, #12]	; (800511c <BSP_PlatformIsDetected+0x14>)
 800510e:	f7fd faa7 	bl	8002660 <HAL_GPIO_ReadPin>
 8005112:	fab0 f080 	clz	r0, r0
 8005116:	0940      	lsrs	r0, r0, #5
 8005118:	bd08      	pop	{r3, pc}
 800511a:	bf00      	nop
 800511c:	40020800 	.word	0x40020800

08005120 <SD_CheckStatus.isra.0>:
 8005120:	b510      	push	{r4, lr}
 8005122:	4c06      	ldr	r4, [pc, #24]	; (800513c <SD_CheckStatus.isra.0+0x1c>)
 8005124:	2301      	movs	r3, #1
 8005126:	7023      	strb	r3, [r4, #0]
 8005128:	f7ff ffba 	bl	80050a0 <BSP_SD_GetCardState>
 800512c:	4623      	mov	r3, r4
 800512e:	b918      	cbnz	r0, 8005138 <SD_CheckStatus.isra.0+0x18>
 8005130:	7822      	ldrb	r2, [r4, #0]
 8005132:	f002 02fe 	and.w	r2, r2, #254	; 0xfe
 8005136:	7022      	strb	r2, [r4, #0]
 8005138:	7818      	ldrb	r0, [r3, #0]
 800513a:	bd10      	pop	{r4, pc}
 800513c:	2000000c 	.word	0x2000000c

08005140 <SD_initialize>:
 8005140:	b510      	push	{r4, lr}
 8005142:	4c05      	ldr	r4, [pc, #20]	; (8005158 <SD_initialize+0x18>)
 8005144:	2301      	movs	r3, #1
 8005146:	7023      	strb	r3, [r4, #0]
 8005148:	f7ff ffc8 	bl	80050dc <BSP_SD_Init>
 800514c:	b910      	cbnz	r0, 8005154 <SD_initialize+0x14>
 800514e:	f7ff ffe7 	bl	8005120 <SD_CheckStatus.isra.0>
 8005152:	7020      	strb	r0, [r4, #0]
 8005154:	7820      	ldrb	r0, [r4, #0]
 8005156:	bd10      	pop	{r4, pc}
 8005158:	2000000c 	.word	0x2000000c

0800515c <SD_status>:
 800515c:	f7ff bfe0 	b.w	8005120 <SD_CheckStatus.isra.0>

08005160 <SD_read>:
 8005160:	b508      	push	{r3, lr}
 8005162:	4608      	mov	r0, r1
 8005164:	4611      	mov	r1, r2
 8005166:	461a      	mov	r2, r3
 8005168:	f04f 33ff 	mov.w	r3, #4294967295
 800516c:	f7ff ff78 	bl	8005060 <BSP_SD_ReadBlocks>
 8005170:	b920      	cbnz	r0, 800517c <SD_read+0x1c>
 8005172:	f7ff ff95 	bl	80050a0 <BSP_SD_GetCardState>
 8005176:	2800      	cmp	r0, #0
 8005178:	d1fb      	bne.n	8005172 <SD_read+0x12>
 800517a:	bd08      	pop	{r3, pc}
 800517c:	2001      	movs	r0, #1
 800517e:	e7fc      	b.n	800517a <SD_read+0x1a>

08005180 <SD_ioctl>:
 8005180:	b530      	push	{r4, r5, lr}
 8005182:	4b13      	ldr	r3, [pc, #76]	; (80051d0 <SD_ioctl+0x50>)
 8005184:	781c      	ldrb	r4, [r3, #0]
 8005186:	f014 0401 	ands.w	r4, r4, #1
 800518a:	b089      	sub	sp, #36	; 0x24
 800518c:	4615      	mov	r5, r2
 800518e:	d11b      	bne.n	80051c8 <SD_ioctl+0x48>
 8005190:	2903      	cmp	r1, #3
 8005192:	d803      	bhi.n	800519c <SD_ioctl+0x1c>
 8005194:	e8df f001 	tbb	[pc, r1]
 8005198:	120c061a 	.word	0x120c061a
 800519c:	2404      	movs	r4, #4
 800519e:	4620      	mov	r0, r4
 80051a0:	b009      	add	sp, #36	; 0x24
 80051a2:	bd30      	pop	{r4, r5, pc}
 80051a4:	4668      	mov	r0, sp
 80051a6:	f7ff ff85 	bl	80050b4 <BSP_SD_GetCardInfo>
 80051aa:	9b06      	ldr	r3, [sp, #24]
 80051ac:	602b      	str	r3, [r5, #0]
 80051ae:	e7f6      	b.n	800519e <SD_ioctl+0x1e>
 80051b0:	4668      	mov	r0, sp
 80051b2:	f7ff ff7f 	bl	80050b4 <BSP_SD_GetCardInfo>
 80051b6:	9b07      	ldr	r3, [sp, #28]
 80051b8:	802b      	strh	r3, [r5, #0]
 80051ba:	e7f0      	b.n	800519e <SD_ioctl+0x1e>
 80051bc:	4668      	mov	r0, sp
 80051be:	f7ff ff79 	bl	80050b4 <BSP_SD_GetCardInfo>
 80051c2:	9b07      	ldr	r3, [sp, #28]
 80051c4:	0a5b      	lsrs	r3, r3, #9
 80051c6:	e7f1      	b.n	80051ac <SD_ioctl+0x2c>
 80051c8:	2403      	movs	r4, #3
 80051ca:	e7e8      	b.n	800519e <SD_ioctl+0x1e>
 80051cc:	460c      	mov	r4, r1
 80051ce:	e7e6      	b.n	800519e <SD_ioctl+0x1e>
 80051d0:	2000000c 	.word	0x2000000c

080051d4 <SD_write>:
 80051d4:	b508      	push	{r3, lr}
 80051d6:	4608      	mov	r0, r1
 80051d8:	4611      	mov	r1, r2
 80051da:	461a      	mov	r2, r3
 80051dc:	f04f 33ff 	mov.w	r3, #4294967295
 80051e0:	f7ff ff4e 	bl	8005080 <BSP_SD_WriteBlocks>
 80051e4:	b920      	cbnz	r0, 80051f0 <SD_write+0x1c>
 80051e6:	f7ff ff5b 	bl	80050a0 <BSP_SD_GetCardState>
 80051ea:	2800      	cmp	r0, #0
 80051ec:	d1fb      	bne.n	80051e6 <SD_write+0x12>
 80051ee:	bd08      	pop	{r3, pc}
 80051f0:	2001      	movs	r0, #1
 80051f2:	e7fc      	b.n	80051ee <SD_write+0x1a>

080051f4 <FATFS_LinkDriverEx>:
 80051f4:	b530      	push	{r4, r5, lr}
 80051f6:	4b0e      	ldr	r3, [pc, #56]	; (8005230 <FATFS_LinkDriverEx+0x3c>)
 80051f8:	7a5c      	ldrb	r4, [r3, #9]
 80051fa:	4605      	mov	r5, r0
 80051fc:	f004 00ff 	and.w	r0, r4, #255	; 0xff
 8005200:	b9a4      	cbnz	r4, 800522c <FATFS_LinkDriverEx+0x38>
 8005202:	7a5c      	ldrb	r4, [r3, #9]
 8005204:	5518      	strb	r0, [r3, r4]
 8005206:	7a5c      	ldrb	r4, [r3, #9]
 8005208:	eb03 0484 	add.w	r4, r3, r4, lsl #2
 800520c:	6065      	str	r5, [r4, #4]
 800520e:	7a5c      	ldrb	r4, [r3, #9]
 8005210:	441c      	add	r4, r3
 8005212:	7222      	strb	r2, [r4, #8]
 8005214:	7a5a      	ldrb	r2, [r3, #9]
 8005216:	1c54      	adds	r4, r2, #1
 8005218:	b2e4      	uxtb	r4, r4
 800521a:	725c      	strb	r4, [r3, #9]
 800521c:	233a      	movs	r3, #58	; 0x3a
 800521e:	3230      	adds	r2, #48	; 0x30
 8005220:	704b      	strb	r3, [r1, #1]
 8005222:	232f      	movs	r3, #47	; 0x2f
 8005224:	700a      	strb	r2, [r1, #0]
 8005226:	708b      	strb	r3, [r1, #2]
 8005228:	70c8      	strb	r0, [r1, #3]
 800522a:	bd30      	pop	{r4, r5, pc}
 800522c:	2001      	movs	r0, #1
 800522e:	e7fc      	b.n	800522a <FATFS_LinkDriverEx+0x36>
 8005230:	2000009c 	.word	0x2000009c

08005234 <FATFS_LinkDriver>:
 8005234:	2200      	movs	r2, #0
 8005236:	f7ff bfdd 	b.w	80051f4 <FATFS_LinkDriverEx>
	...

0800523c <__errno>:
 800523c:	4b01      	ldr	r3, [pc, #4]	; (8005244 <__errno+0x8>)
 800523e:	6818      	ldr	r0, [r3, #0]
 8005240:	4770      	bx	lr
 8005242:	bf00      	nop
 8005244:	20000010 	.word	0x20000010

08005248 <__libc_init_array>:
 8005248:	b570      	push	{r4, r5, r6, lr}
 800524a:	4d0d      	ldr	r5, [pc, #52]	; (8005280 <__libc_init_array+0x38>)
 800524c:	4c0d      	ldr	r4, [pc, #52]	; (8005284 <__libc_init_array+0x3c>)
 800524e:	1b64      	subs	r4, r4, r5
 8005250:	10a4      	asrs	r4, r4, #2
 8005252:	2600      	movs	r6, #0
 8005254:	42a6      	cmp	r6, r4
 8005256:	d109      	bne.n	800526c <__libc_init_array+0x24>
 8005258:	4d0b      	ldr	r5, [pc, #44]	; (8005288 <__libc_init_array+0x40>)
 800525a:	4c0c      	ldr	r4, [pc, #48]	; (800528c <__libc_init_array+0x44>)
 800525c:	f000 fc9c 	bl	8005b98 <_init>
 8005260:	1b64      	subs	r4, r4, r5
 8005262:	10a4      	asrs	r4, r4, #2
 8005264:	2600      	movs	r6, #0
 8005266:	42a6      	cmp	r6, r4
 8005268:	d105      	bne.n	8005276 <__libc_init_array+0x2e>
 800526a:	bd70      	pop	{r4, r5, r6, pc}
 800526c:	f855 3b04 	ldr.w	r3, [r5], #4
 8005270:	4798      	blx	r3
 8005272:	3601      	adds	r6, #1
 8005274:	e7ee      	b.n	8005254 <__libc_init_array+0xc>
 8005276:	f855 3b04 	ldr.w	r3, [r5], #4
 800527a:	4798      	blx	r3
 800527c:	3601      	adds	r6, #1
 800527e:	e7f2      	b.n	8005266 <__libc_init_array+0x1e>
 8005280:	0800611c 	.word	0x0800611c
 8005284:	0800611c 	.word	0x0800611c
 8005288:	0800611c 	.word	0x0800611c
 800528c:	08006120 	.word	0x08006120

08005290 <memset>:
 8005290:	4402      	add	r2, r0
 8005292:	4603      	mov	r3, r0
 8005294:	4293      	cmp	r3, r2
 8005296:	d100      	bne.n	800529a <memset+0xa>
 8005298:	4770      	bx	lr
 800529a:	f803 1b01 	strb.w	r1, [r3], #1
 800529e:	e7f9      	b.n	8005294 <memset+0x4>

080052a0 <sniprintf>:
 80052a0:	b40c      	push	{r2, r3}
 80052a2:	b530      	push	{r4, r5, lr}
 80052a4:	4b17      	ldr	r3, [pc, #92]	; (8005304 <sniprintf+0x64>)
 80052a6:	1e0c      	subs	r4, r1, #0
 80052a8:	681d      	ldr	r5, [r3, #0]
 80052aa:	b09d      	sub	sp, #116	; 0x74
 80052ac:	da08      	bge.n	80052c0 <sniprintf+0x20>
 80052ae:	238b      	movs	r3, #139	; 0x8b
 80052b0:	602b      	str	r3, [r5, #0]
 80052b2:	f04f 30ff 	mov.w	r0, #4294967295
 80052b6:	b01d      	add	sp, #116	; 0x74
 80052b8:	e8bd 4030 	ldmia.w	sp!, {r4, r5, lr}
 80052bc:	b002      	add	sp, #8
 80052be:	4770      	bx	lr
 80052c0:	f44f 7302 	mov.w	r3, #520	; 0x208
 80052c4:	f8ad 3014 	strh.w	r3, [sp, #20]
 80052c8:	bf14      	ite	ne
 80052ca:	f104 33ff 	addne.w	r3, r4, #4294967295
 80052ce:	4623      	moveq	r3, r4
 80052d0:	9304      	str	r3, [sp, #16]
 80052d2:	9307      	str	r3, [sp, #28]
 80052d4:	f64f 73ff 	movw	r3, #65535	; 0xffff
 80052d8:	9002      	str	r0, [sp, #8]
 80052da:	9006      	str	r0, [sp, #24]
 80052dc:	f8ad 3016 	strh.w	r3, [sp, #22]
 80052e0:	9a20      	ldr	r2, [sp, #128]	; 0x80
 80052e2:	ab21      	add	r3, sp, #132	; 0x84
 80052e4:	a902      	add	r1, sp, #8
 80052e6:	4628      	mov	r0, r5
 80052e8:	9301      	str	r3, [sp, #4]
 80052ea:	f000 f8a3 	bl	8005434 <_svfiprintf_r>
 80052ee:	1c43      	adds	r3, r0, #1
 80052f0:	bfbc      	itt	lt
 80052f2:	238b      	movlt	r3, #139	; 0x8b
 80052f4:	602b      	strlt	r3, [r5, #0]
 80052f6:	2c00      	cmp	r4, #0
 80052f8:	d0dd      	beq.n	80052b6 <sniprintf+0x16>
 80052fa:	9b02      	ldr	r3, [sp, #8]
 80052fc:	2200      	movs	r2, #0
 80052fe:	701a      	strb	r2, [r3, #0]
 8005300:	e7d9      	b.n	80052b6 <sniprintf+0x16>
 8005302:	bf00      	nop
 8005304:	20000010 	.word	0x20000010

08005308 <_vsniprintf_r>:
 8005308:	b530      	push	{r4, r5, lr}
 800530a:	1e14      	subs	r4, r2, #0
 800530c:	4605      	mov	r5, r0
 800530e:	b09b      	sub	sp, #108	; 0x6c
 8005310:	4618      	mov	r0, r3
 8005312:	da05      	bge.n	8005320 <_vsniprintf_r+0x18>
 8005314:	238b      	movs	r3, #139	; 0x8b
 8005316:	602b      	str	r3, [r5, #0]
 8005318:	f04f 30ff 	mov.w	r0, #4294967295
 800531c:	b01b      	add	sp, #108	; 0x6c
 800531e:	bd30      	pop	{r4, r5, pc}
 8005320:	f44f 7302 	mov.w	r3, #520	; 0x208
 8005324:	f8ad 300c 	strh.w	r3, [sp, #12]
 8005328:	bf14      	ite	ne
 800532a:	f104 33ff 	addne.w	r3, r4, #4294967295
 800532e:	4623      	moveq	r3, r4
 8005330:	9302      	str	r3, [sp, #8]
 8005332:	9305      	str	r3, [sp, #20]
 8005334:	f64f 73ff 	movw	r3, #65535	; 0xffff
 8005338:	9100      	str	r1, [sp, #0]
 800533a:	9104      	str	r1, [sp, #16]
 800533c:	f8ad 300e 	strh.w	r3, [sp, #14]
 8005340:	4602      	mov	r2, r0
 8005342:	9b1e      	ldr	r3, [sp, #120]	; 0x78
 8005344:	4669      	mov	r1, sp
 8005346:	4628      	mov	r0, r5
 8005348:	f000 f874 	bl	8005434 <_svfiprintf_r>
 800534c:	1c43      	adds	r3, r0, #1
 800534e:	bfbc      	itt	lt
 8005350:	238b      	movlt	r3, #139	; 0x8b
 8005352:	602b      	strlt	r3, [r5, #0]
 8005354:	2c00      	cmp	r4, #0
 8005356:	d0e1      	beq.n	800531c <_vsniprintf_r+0x14>
 8005358:	9b00      	ldr	r3, [sp, #0]
 800535a:	2200      	movs	r2, #0
 800535c:	701a      	strb	r2, [r3, #0]
 800535e:	e7dd      	b.n	800531c <_vsniprintf_r+0x14>

08005360 <vsniprintf>:
 8005360:	b507      	push	{r0, r1, r2, lr}
 8005362:	9300      	str	r3, [sp, #0]
 8005364:	4613      	mov	r3, r2
 8005366:	460a      	mov	r2, r1
 8005368:	4601      	mov	r1, r0
 800536a:	4803      	ldr	r0, [pc, #12]	; (8005378 <vsniprintf+0x18>)
 800536c:	6800      	ldr	r0, [r0, #0]
 800536e:	f7ff ffcb 	bl	8005308 <_vsniprintf_r>
 8005372:	b003      	add	sp, #12
 8005374:	f85d fb04 	ldr.w	pc, [sp], #4
 8005378:	20000010 	.word	0x20000010

0800537c <__ssputs_r>:
 800537c:	e92d 47f0 	stmdb	sp!, {r4, r5, r6, r7, r8, r9, sl, lr}
 8005380:	688e      	ldr	r6, [r1, #8]
 8005382:	429e      	cmp	r6, r3
 8005384:	4682      	mov	sl, r0
 8005386:	460c      	mov	r4, r1
 8005388:	4690      	mov	r8, r2
 800538a:	461f      	mov	r7, r3
 800538c:	d838      	bhi.n	8005400 <__ssputs_r+0x84>
 800538e:	898a      	ldrh	r2, [r1, #12]
 8005390:	f412 6f90 	tst.w	r2, #1152	; 0x480
 8005394:	d032      	beq.n	80053fc <__ssputs_r+0x80>
 8005396:	6825      	ldr	r5, [r4, #0]
 8005398:	6909      	ldr	r1, [r1, #16]
 800539a:	eba5 0901 	sub.w	r9, r5, r1
 800539e:	6965      	ldr	r5, [r4, #20]
 80053a0:	eb05 0545 	add.w	r5, r5, r5, lsl #1
 80053a4:	eb05 75d5 	add.w	r5, r5, r5, lsr #31
 80053a8:	3301      	adds	r3, #1
 80053aa:	444b      	add	r3, r9
 80053ac:	106d      	asrs	r5, r5, #1
 80053ae:	429d      	cmp	r5, r3
 80053b0:	bf38      	it	cc
 80053b2:	461d      	movcc	r5, r3
 80053b4:	0553      	lsls	r3, r2, #21
 80053b6:	d531      	bpl.n	800541c <__ssputs_r+0xa0>
 80053b8:	4629      	mov	r1, r5
 80053ba:	f000 fb47 	bl	8005a4c <_malloc_r>
 80053be:	4606      	mov	r6, r0
 80053c0:	b950      	cbnz	r0, 80053d8 <__ssputs_r+0x5c>
 80053c2:	230c      	movs	r3, #12
 80053c4:	f8ca 3000 	str.w	r3, [sl]
 80053c8:	89a3      	ldrh	r3, [r4, #12]
 80053ca:	f043 0340 	orr.w	r3, r3, #64	; 0x40
 80053ce:	81a3      	strh	r3, [r4, #12]
 80053d0:	f04f 30ff 	mov.w	r0, #4294967295
 80053d4:	e8bd 87f0 	ldmia.w	sp!, {r4, r5, r6, r7, r8, r9, sl, pc}
 80053d8:	6921      	ldr	r1, [r4, #16]
 80053da:	464a      	mov	r2, r9
 80053dc:	f000 fabe 	bl	800595c <memcpy>
 80053e0:	89a3      	ldrh	r3, [r4, #12]
 80053e2:	f423 6390 	bic.w	r3, r3, #1152	; 0x480
 80053e6:	f043 0380 	orr.w	r3, r3, #128	; 0x80
 80053ea:	81a3      	strh	r3, [r4, #12]
 80053ec:	6126      	str	r6, [r4, #16]
 80053ee:	6165      	str	r5, [r4, #20]
 80053f0:	444e      	add	r6, r9
 80053f2:	eba5 0509 	sub.w	r5, r5, r9
 80053f6:	6026      	str	r6, [r4, #0]
 80053f8:	60a5      	str	r5, [r4, #8]
 80053fa:	463e      	mov	r6, r7
 80053fc:	42be      	cmp	r6, r7
 80053fe:	d900      	bls.n	8005402 <__ssputs_r+0x86>
 8005400:	463e      	mov	r6, r7
 8005402:	4632      	mov	r2, r6
 8005404:	6820      	ldr	r0, [r4, #0]
 8005406:	4641      	mov	r1, r8
 8005408:	f000 fab6 	bl	8005978 <memmove>
 800540c:	68a3      	ldr	r3, [r4, #8]
 800540e:	6822      	ldr	r2, [r4, #0]
 8005410:	1b9b      	subs	r3, r3, r6
 8005412:	4432      	add	r2, r6
 8005414:	60a3      	str	r3, [r4, #8]
 8005416:	6022      	str	r2, [r4, #0]
 8005418:	2000      	movs	r0, #0
 800541a:	e7db      	b.n	80053d4 <__ssputs_r+0x58>
 800541c:	462a      	mov	r2, r5
 800541e:	f000 fb6f 	bl	8005b00 <_realloc_r>
 8005422:	4606      	mov	r6, r0
 8005424:	2800      	cmp	r0, #0
 8005426:	d1e1      	bne.n	80053ec <__ssputs_r+0x70>
 8005428:	6921      	ldr	r1, [r4, #16]
 800542a:	4650      	mov	r0, sl
 800542c:	f000 fabe 	bl	80059ac <_free_r>
 8005430:	e7c7      	b.n	80053c2 <__ssputs_r+0x46>
	...

08005434 <_svfiprintf_r>:
 8005434:	e92d 4ff0 	stmdb	sp!, {r4, r5, r6, r7, r8, r9, sl, fp, lr}
 8005438:	4698      	mov	r8, r3
 800543a:	898b      	ldrh	r3, [r1, #12]
 800543c:	061b      	lsls	r3, r3, #24
 800543e:	b09d      	sub	sp, #116	; 0x74
 8005440:	4607      	mov	r7, r0
 8005442:	460d      	mov	r5, r1
 8005444:	4614      	mov	r4, r2
 8005446:	d50e      	bpl.n	8005466 <_svfiprintf_r+0x32>
 8005448:	690b      	ldr	r3, [r1, #16]
 800544a:	b963      	cbnz	r3, 8005466 <_svfiprintf_r+0x32>
 800544c:	2140      	movs	r1, #64	; 0x40
 800544e:	f000 fafd 	bl	8005a4c <_malloc_r>
 8005452:	6028      	str	r0, [r5, #0]
 8005454:	6128      	str	r0, [r5, #16]
 8005456:	b920      	cbnz	r0, 8005462 <_svfiprintf_r+0x2e>
 8005458:	230c      	movs	r3, #12
 800545a:	603b      	str	r3, [r7, #0]
 800545c:	f04f 30ff 	mov.w	r0, #4294967295
 8005460:	e0d1      	b.n	8005606 <_svfiprintf_r+0x1d2>
 8005462:	2340      	movs	r3, #64	; 0x40
 8005464:	616b      	str	r3, [r5, #20]
 8005466:	2300      	movs	r3, #0
 8005468:	9309      	str	r3, [sp, #36]	; 0x24
 800546a:	2320      	movs	r3, #32
 800546c:	f88d 3029 	strb.w	r3, [sp, #41]	; 0x29
 8005470:	f8cd 800c 	str.w	r8, [sp, #12]
 8005474:	2330      	movs	r3, #48	; 0x30
 8005476:	f8df 81a8 	ldr.w	r8, [pc, #424]	; 8005620 <_svfiprintf_r+0x1ec>
 800547a:	f88d 302a 	strb.w	r3, [sp, #42]	; 0x2a
 800547e:	f04f 0901 	mov.w	r9, #1
 8005482:	4623      	mov	r3, r4
 8005484:	469a      	mov	sl, r3
 8005486:	f813 2b01 	ldrb.w	r2, [r3], #1
 800548a:	b10a      	cbz	r2, 8005490 <_svfiprintf_r+0x5c>
 800548c:	2a25      	cmp	r2, #37	; 0x25
 800548e:	d1f9      	bne.n	8005484 <_svfiprintf_r+0x50>
 8005490:	ebba 0b04 	subs.w	fp, sl, r4
 8005494:	d00b      	beq.n	80054ae <_svfiprintf_r+0x7a>
 8005496:	465b      	mov	r3, fp
 8005498:	4622      	mov	r2, r4
 800549a:	4629      	mov	r1, r5
 800549c:	4638      	mov	r0, r7
 800549e:	f7ff ff6d 	bl	800537c <__ssputs_r>
 80054a2:	3001      	adds	r0, #1
 80054a4:	f000 80aa 	beq.w	80055fc <_svfiprintf_r+0x1c8>
 80054a8:	9a09      	ldr	r2, [sp, #36]	; 0x24
 80054aa:	445a      	add	r2, fp
 80054ac:	9209      	str	r2, [sp, #36]	; 0x24
 80054ae:	f89a 3000 	ldrb.w	r3, [sl]
 80054b2:	2b00      	cmp	r3, #0
 80054b4:	f000 80a2 	beq.w	80055fc <_svfiprintf_r+0x1c8>
 80054b8:	2300      	movs	r3, #0
 80054ba:	f04f 32ff 	mov.w	r2, #4294967295
 80054be:	e9cd 2305 	strd	r2, r3, [sp, #20]
 80054c2:	f10a 0a01 	add.w	sl, sl, #1
 80054c6:	9304      	str	r3, [sp, #16]
 80054c8:	9307      	str	r3, [sp, #28]
 80054ca:	f88d 3053 	strb.w	r3, [sp, #83]	; 0x53
 80054ce:	931a      	str	r3, [sp, #104]	; 0x68
 80054d0:	4654      	mov	r4, sl
 80054d2:	2205      	movs	r2, #5
 80054d4:	f814 1b01 	ldrb.w	r1, [r4], #1
 80054d8:	4851      	ldr	r0, [pc, #324]	; (8005620 <_svfiprintf_r+0x1ec>)
 80054da:	f7fa fea1 	bl	8000220 <memchr>
 80054de:	9a04      	ldr	r2, [sp, #16]
 80054e0:	b9d8      	cbnz	r0, 800551a <_svfiprintf_r+0xe6>
 80054e2:	06d0      	lsls	r0, r2, #27
 80054e4:	bf44      	itt	mi
 80054e6:	2320      	movmi	r3, #32
 80054e8:	f88d 3053 	strbmi.w	r3, [sp, #83]	; 0x53
 80054ec:	0711      	lsls	r1, r2, #28
 80054ee:	bf44      	itt	mi
 80054f0:	232b      	movmi	r3, #43	; 0x2b
 80054f2:	f88d 3053 	strbmi.w	r3, [sp, #83]	; 0x53
 80054f6:	f89a 3000 	ldrb.w	r3, [sl]
 80054fa:	2b2a      	cmp	r3, #42	; 0x2a
 80054fc:	d015      	beq.n	800552a <_svfiprintf_r+0xf6>
 80054fe:	9a07      	ldr	r2, [sp, #28]
 8005500:	4654      	mov	r4, sl
 8005502:	2000      	movs	r0, #0
 8005504:	f04f 0c0a 	mov.w	ip, #10
 8005508:	4621      	mov	r1, r4
 800550a:	f811 3b01 	ldrb.w	r3, [r1], #1
 800550e:	3b30      	subs	r3, #48	; 0x30
 8005510:	2b09      	cmp	r3, #9
 8005512:	d94e      	bls.n	80055b2 <_svfiprintf_r+0x17e>
 8005514:	b1b0      	cbz	r0, 8005544 <_svfiprintf_r+0x110>
 8005516:	9207      	str	r2, [sp, #28]
 8005518:	e014      	b.n	8005544 <_svfiprintf_r+0x110>
 800551a:	eba0 0308 	sub.w	r3, r0, r8
 800551e:	fa09 f303 	lsl.w	r3, r9, r3
 8005522:	4313      	orrs	r3, r2
 8005524:	9304      	str	r3, [sp, #16]
 8005526:	46a2      	mov	sl, r4
 8005528:	e7d2      	b.n	80054d0 <_svfiprintf_r+0x9c>
 800552a:	9b03      	ldr	r3, [sp, #12]
 800552c:	1d19      	adds	r1, r3, #4
 800552e:	681b      	ldr	r3, [r3, #0]
 8005530:	9103      	str	r1, [sp, #12]
 8005532:	2b00      	cmp	r3, #0
 8005534:	bfbb      	ittet	lt
 8005536:	425b      	neglt	r3, r3
 8005538:	f042 0202 	orrlt.w	r2, r2, #2
 800553c:	9307      	strge	r3, [sp, #28]
 800553e:	9307      	strlt	r3, [sp, #28]
 8005540:	bfb8      	it	lt
 8005542:	9204      	strlt	r2, [sp, #16]
 8005544:	7823      	ldrb	r3, [r4, #0]
 8005546:	2b2e      	cmp	r3, #46	; 0x2e
 8005548:	d10c      	bne.n	8005564 <_svfiprintf_r+0x130>
 800554a:	7863      	ldrb	r3, [r4, #1]
 800554c:	2b2a      	cmp	r3, #42	; 0x2a
 800554e:	d135      	bne.n	80055bc <_svfiprintf_r+0x188>
 8005550:	9b03      	ldr	r3, [sp, #12]
 8005552:	1d1a      	adds	r2, r3, #4
 8005554:	681b      	ldr	r3, [r3, #0]
 8005556:	9203      	str	r2, [sp, #12]
 8005558:	2b00      	cmp	r3, #0
 800555a:	bfb8      	it	lt
 800555c:	f04f 33ff 	movlt.w	r3, #4294967295
 8005560:	3402      	adds	r4, #2
 8005562:	9305      	str	r3, [sp, #20]
 8005564:	f8df a0c8 	ldr.w	sl, [pc, #200]	; 8005630 <_svfiprintf_r+0x1fc>
 8005568:	7821      	ldrb	r1, [r4, #0]
 800556a:	2203      	movs	r2, #3
 800556c:	4650      	mov	r0, sl
 800556e:	f7fa fe57 	bl	8000220 <memchr>
 8005572:	b140      	cbz	r0, 8005586 <_svfiprintf_r+0x152>
 8005574:	2340      	movs	r3, #64	; 0x40
 8005576:	eba0 000a 	sub.w	r0, r0, sl
 800557a:	fa03 f000 	lsl.w	r0, r3, r0
 800557e:	9b04      	ldr	r3, [sp, #16]
 8005580:	4303      	orrs	r3, r0
 8005582:	3401      	adds	r4, #1
 8005584:	9304      	str	r3, [sp, #16]
 8005586:	f814 1b01 	ldrb.w	r1, [r4], #1
 800558a:	4826      	ldr	r0, [pc, #152]	; (8005624 <_svfiprintf_r+0x1f0>)
 800558c:	f88d 1028 	strb.w	r1, [sp, #40]	; 0x28
 8005590:	2206      	movs	r2, #6
 8005592:	f7fa fe45 	bl	8000220 <memchr>
 8005596:	2800      	cmp	r0, #0
 8005598:	d038      	beq.n	800560c <_svfiprintf_r+0x1d8>
 800559a:	4b23      	ldr	r3, [pc, #140]	; (8005628 <_svfiprintf_r+0x1f4>)
 800559c:	bb1b      	cbnz	r3, 80055e6 <_svfiprintf_r+0x1b2>
 800559e:	9b03      	ldr	r3, [sp, #12]
 80055a0:	3307      	adds	r3, #7
 80055a2:	f023 0307 	bic.w	r3, r3, #7
 80055a6:	3308      	adds	r3, #8
 80055a8:	9303      	str	r3, [sp, #12]
 80055aa:	9b09      	ldr	r3, [sp, #36]	; 0x24
 80055ac:	4433      	add	r3, r6
 80055ae:	9309      	str	r3, [sp, #36]	; 0x24
 80055b0:	e767      	b.n	8005482 <_svfiprintf_r+0x4e>
 80055b2:	fb0c 3202 	mla	r2, ip, r2, r3
 80055b6:	460c      	mov	r4, r1
 80055b8:	2001      	movs	r0, #1
 80055ba:	e7a5      	b.n	8005508 <_svfiprintf_r+0xd4>
 80055bc:	2300      	movs	r3, #0
 80055be:	3401      	adds	r4, #1
 80055c0:	9305      	str	r3, [sp, #20]
 80055c2:	4619      	mov	r1, r3
 80055c4:	f04f 0c0a 	mov.w	ip, #10
 80055c8:	4620      	mov	r0, r4
 80055ca:	f810 2b01 	ldrb.w	r2, [r0], #1
 80055ce:	3a30      	subs	r2, #48	; 0x30
 80055d0:	2a09      	cmp	r2, #9
 80055d2:	d903      	bls.n	80055dc <_svfiprintf_r+0x1a8>
 80055d4:	2b00      	cmp	r3, #0
 80055d6:	d0c5      	beq.n	8005564 <_svfiprintf_r+0x130>
 80055d8:	9105      	str	r1, [sp, #20]
 80055da:	e7c3      	b.n	8005564 <_svfiprintf_r+0x130>
 80055dc:	fb0c 2101 	mla	r1, ip, r1, r2
 80055e0:	4604      	mov	r4, r0
 80055e2:	2301      	movs	r3, #1
 80055e4:	e7f0      	b.n	80055c8 <_svfiprintf_r+0x194>
 80055e6:	ab03      	add	r3, sp, #12
 80055e8:	9300      	str	r3, [sp, #0]
 80055ea:	462a      	mov	r2, r5
 80055ec:	4b0f      	ldr	r3, [pc, #60]	; (800562c <_svfiprintf_r+0x1f8>)
 80055ee:	a904      	add	r1, sp, #16
 80055f0:	4638      	mov	r0, r7
 80055f2:	f3af 8000 	nop.w
 80055f6:	1c42      	adds	r2, r0, #1
 80055f8:	4606      	mov	r6, r0
 80055fa:	d1d6      	bne.n	80055aa <_svfiprintf_r+0x176>
 80055fc:	89ab      	ldrh	r3, [r5, #12]
 80055fe:	065b      	lsls	r3, r3, #25
 8005600:	f53f af2c 	bmi.w	800545c <_svfiprintf_r+0x28>
 8005604:	9809      	ldr	r0, [sp, #36]	; 0x24
 8005606:	b01d      	add	sp, #116	; 0x74
 8005608:	e8bd 8ff0 	ldmia.w	sp!, {r4, r5, r6, r7, r8, r9, sl, fp, pc}
 800560c:	ab03      	add	r3, sp, #12
 800560e:	9300      	str	r3, [sp, #0]
 8005610:	462a      	mov	r2, r5
 8005612:	4b06      	ldr	r3, [pc, #24]	; (800562c <_svfiprintf_r+0x1f8>)
 8005614:	a904      	add	r1, sp, #16
 8005616:	4638      	mov	r0, r7
 8005618:	f000 f87a 	bl	8005710 <_printf_i>
 800561c:	e7eb      	b.n	80055f6 <_svfiprintf_r+0x1c2>
 800561e:	bf00      	nop
 8005620:	080060e0 	.word	0x080060e0
 8005624:	080060ea 	.word	0x080060ea
 8005628:	00000000 	.word	0x00000000
 800562c:	0800537d 	.word	0x0800537d
 8005630:	080060e6 	.word	0x080060e6

08005634 <_printf_common>:
 8005634:	e92d 47f0 	stmdb	sp!, {r4, r5, r6, r7, r8, r9, sl, lr}
 8005638:	4616      	mov	r6, r2
 800563a:	4699      	mov	r9, r3
 800563c:	688a      	ldr	r2, [r1, #8]
 800563e:	690b      	ldr	r3, [r1, #16]
 8005640:	f8dd 8020 	ldr.w	r8, [sp, #32]
 8005644:	4293      	cmp	r3, r2
 8005646:	bfb8      	it	lt
 8005648:	4613      	movlt	r3, r2
 800564a:	6033      	str	r3, [r6, #0]
 800564c:	f891 2043 	ldrb.w	r2, [r1, #67]	; 0x43
 8005650:	4607      	mov	r7, r0
 8005652:	460c      	mov	r4, r1
 8005654:	b10a      	cbz	r2, 800565a <_printf_common+0x26>
 8005656:	3301      	adds	r3, #1
 8005658:	6033      	str	r3, [r6, #0]
 800565a:	6823      	ldr	r3, [r4, #0]
 800565c:	0699      	lsls	r1, r3, #26
 800565e:	bf42      	ittt	mi
 8005660:	6833      	ldrmi	r3, [r6, #0]
 8005662:	3302      	addmi	r3, #2
 8005664:	6033      	strmi	r3, [r6, #0]
 8005666:	6825      	ldr	r5, [r4, #0]
 8005668:	f015 0506 	ands.w	r5, r5, #6
 800566c:	d106      	bne.n	800567c <_printf_common+0x48>
 800566e:	f104 0a19 	add.w	sl, r4, #25
 8005672:	68e3      	ldr	r3, [r4, #12]
 8005674:	6832      	ldr	r2, [r6, #0]
 8005676:	1a9b      	subs	r3, r3, r2
 8005678:	42ab      	cmp	r3, r5
 800567a:	dc26      	bgt.n	80056ca <_printf_common+0x96>
 800567c:	f894 2043 	ldrb.w	r2, [r4, #67]	; 0x43
 8005680:	1e13      	subs	r3, r2, #0
 8005682:	6822      	ldr	r2, [r4, #0]
 8005684:	bf18      	it	ne
 8005686:	2301      	movne	r3, #1
 8005688:	0692      	lsls	r2, r2, #26
 800568a:	d42b      	bmi.n	80056e4 <_printf_common+0xb0>
 800568c:	f104 0243 	add.w	r2, r4, #67	; 0x43
 8005690:	4649      	mov	r1, r9
 8005692:	4638      	mov	r0, r7
 8005694:	47c0      	blx	r8
 8005696:	3001      	adds	r0, #1
 8005698:	d01e      	beq.n	80056d8 <_printf_common+0xa4>
 800569a:	6823      	ldr	r3, [r4, #0]
 800569c:	68e5      	ldr	r5, [r4, #12]
 800569e:	6832      	ldr	r2, [r6, #0]
 80056a0:	f003 0306 	and.w	r3, r3, #6
 80056a4:	2b04      	cmp	r3, #4
 80056a6:	bf08      	it	eq
 80056a8:	1aad      	subeq	r5, r5, r2
 80056aa:	68a3      	ldr	r3, [r4, #8]
 80056ac:	6922      	ldr	r2, [r4, #16]
 80056ae:	bf0c      	ite	eq
 80056b0:	ea25 75e5 	biceq.w	r5, r5, r5, asr #31
 80056b4:	2500      	movne	r5, #0
 80056b6:	4293      	cmp	r3, r2
 80056b8:	bfc4      	itt	gt
 80056ba:	1a9b      	subgt	r3, r3, r2
 80056bc:	18ed      	addgt	r5, r5, r3
 80056be:	2600      	movs	r6, #0
 80056c0:	341a      	adds	r4, #26
 80056c2:	42b5      	cmp	r5, r6
 80056c4:	d11a      	bne.n	80056fc <_printf_common+0xc8>
 80056c6:	2000      	movs	r0, #0
 80056c8:	e008      	b.n	80056dc <_printf_common+0xa8>
 80056ca:	2301      	movs	r3, #1
 80056cc:	4652      	mov	r2, sl
 80056ce:	4649      	mov	r1, r9
 80056d0:	4638      	mov	r0, r7
 80056d2:	47c0      	blx	r8
 80056d4:	3001      	adds	r0, #1
 80056d6:	d103      	bne.n	80056e0 <_printf_common+0xac>
 80056d8:	f04f 30ff 	mov.w	r0, #4294967295
 80056dc:	e8bd 87f0 	ldmia.w	sp!, {r4, r5, r6, r7, r8, r9, sl, pc}
 80056e0:	3501      	adds	r5, #1
 80056e2:	e7c6      	b.n	8005672 <_printf_common+0x3e>
 80056e4:	18e1      	adds	r1, r4, r3
 80056e6:	1c5a      	adds	r2, r3, #1
 80056e8:	2030      	movs	r0, #48	; 0x30
 80056ea:	f881 0043 	strb.w	r0, [r1, #67]	; 0x43
 80056ee:	4422      	add	r2, r4
 80056f0:	f894 1045 	ldrb.w	r1, [r4, #69]	; 0x45
 80056f4:	f882 1043 	strb.w	r1, [r2, #67]	; 0x43
 80056f8:	3302      	adds	r3, #2
 80056fa:	e7c7      	b.n	800568c <_printf_common+0x58>
 80056fc:	2301      	movs	r3, #1
 80056fe:	4622      	mov	r2, r4
 8005700:	4649      	mov	r1, r9
 8005702:	4638      	mov	r0, r7
 8005704:	47c0      	blx	r8
 8005706:	3001      	adds	r0, #1
 8005708:	d0e6      	beq.n	80056d8 <_printf_common+0xa4>
 800570a:	3601      	adds	r6, #1
 800570c:	e7d9      	b.n	80056c2 <_printf_common+0x8e>
	...

08005710 <_printf_i>:
 8005710:	e92d 47ff 	stmdb	sp!, {r0, r1, r2, r3, r4, r5, r6, r7, r8, r9, sl, lr}
 8005714:	460c      	mov	r4, r1
 8005716:	4691      	mov	r9, r2
 8005718:	7e27      	ldrb	r7, [r4, #24]
 800571a:	990c      	ldr	r1, [sp, #48]	; 0x30
 800571c:	2f78      	cmp	r7, #120	; 0x78
 800571e:	4680      	mov	r8, r0
 8005720:	469a      	mov	sl, r3
 8005722:	f104 0243 	add.w	r2, r4, #67	; 0x43
 8005726:	d807      	bhi.n	8005738 <_printf_i+0x28>
 8005728:	2f62      	cmp	r7, #98	; 0x62
 800572a:	d80a      	bhi.n	8005742 <_printf_i+0x32>
 800572c:	2f00      	cmp	r7, #0
 800572e:	f000 80d8 	beq.w	80058e2 <_printf_i+0x1d2>
 8005732:	2f58      	cmp	r7, #88	; 0x58
 8005734:	f000 80a3 	beq.w	800587e <_printf_i+0x16e>
 8005738:	f104 0642 	add.w	r6, r4, #66	; 0x42
 800573c:	f884 7042 	strb.w	r7, [r4, #66]	; 0x42
 8005740:	e03a      	b.n	80057b8 <_printf_i+0xa8>
 8005742:	f1a7 0363 	sub.w	r3, r7, #99	; 0x63
 8005746:	2b15      	cmp	r3, #21
 8005748:	d8f6      	bhi.n	8005738 <_printf_i+0x28>
 800574a:	a001      	add	r0, pc, #4	; (adr r0, 8005750 <_printf_i+0x40>)
 800574c:	f850 f023 	ldr.w	pc, [r0, r3, lsl #2]
 8005750:	080057a9 	.word	0x080057a9
 8005754:	080057bd 	.word	0x080057bd
 8005758:	08005739 	.word	0x08005739
 800575c:	08005739 	.word	0x08005739
 8005760:	08005739 	.word	0x08005739
 8005764:	08005739 	.word	0x08005739
 8005768:	080057bd 	.word	0x080057bd
 800576c:	08005739 	.word	0x08005739
 8005770:	08005739 	.word	0x08005739
 8005774:	08005739 	.word	0x08005739
 8005778:	08005739 	.word	0x08005739
 800577c:	080058c9 	.word	0x080058c9
 8005780:	080057ed 	.word	0x080057ed
 8005784:	080058ab 	.word	0x080058ab
 8005788:	08005739 	.word	0x08005739
 800578c:	08005739 	.word	0x08005739
 8005790:	080058eb 	.word	0x080058eb
 8005794:	08005739 	.word	0x08005739
 8005798:	080057ed 	.word	0x080057ed
 800579c:	08005739 	.word	0x08005739
 80057a0:	08005739 	.word	0x08005739
 80057a4:	080058b3 	.word	0x080058b3
 80057a8:	680b      	ldr	r3, [r1, #0]
 80057aa:	1d1a      	adds	r2, r3, #4
 80057ac:	681b      	ldr	r3, [r3, #0]
 80057ae:	600a      	str	r2, [r1, #0]
 80057b0:	f104 0642 	add.w	r6, r4, #66	; 0x42
 80057b4:	f884 3042 	strb.w	r3, [r4, #66]	; 0x42
 80057b8:	2301      	movs	r3, #1
 80057ba:	e0a3      	b.n	8005904 <_printf_i+0x1f4>
 80057bc:	6825      	ldr	r5, [r4, #0]
 80057be:	6808      	ldr	r0, [r1, #0]
 80057c0:	062e      	lsls	r6, r5, #24
 80057c2:	f100 0304 	add.w	r3, r0, #4
 80057c6:	d50a      	bpl.n	80057de <_printf_i+0xce>
 80057c8:	6805      	ldr	r5, [r0, #0]
 80057ca:	600b      	str	r3, [r1, #0]
 80057cc:	2d00      	cmp	r5, #0
 80057ce:	da03      	bge.n	80057d8 <_printf_i+0xc8>
 80057d0:	232d      	movs	r3, #45	; 0x2d
 80057d2:	426d      	negs	r5, r5
 80057d4:	f884 3043 	strb.w	r3, [r4, #67]	; 0x43
 80057d8:	485e      	ldr	r0, [pc, #376]	; (8005954 <_printf_i+0x244>)
 80057da:	230a      	movs	r3, #10
 80057dc:	e019      	b.n	8005812 <_printf_i+0x102>
 80057de:	f015 0f40 	tst.w	r5, #64	; 0x40
 80057e2:	6805      	ldr	r5, [r0, #0]
 80057e4:	600b      	str	r3, [r1, #0]
 80057e6:	bf18      	it	ne
 80057e8:	b22d      	sxthne	r5, r5
 80057ea:	e7ef      	b.n	80057cc <_printf_i+0xbc>
 80057ec:	680b      	ldr	r3, [r1, #0]
 80057ee:	6825      	ldr	r5, [r4, #0]
 80057f0:	1d18      	adds	r0, r3, #4
 80057f2:	6008      	str	r0, [r1, #0]
 80057f4:	0628      	lsls	r0, r5, #24
 80057f6:	d501      	bpl.n	80057fc <_printf_i+0xec>
 80057f8:	681d      	ldr	r5, [r3, #0]
 80057fa:	e002      	b.n	8005802 <_printf_i+0xf2>
 80057fc:	0669      	lsls	r1, r5, #25
 80057fe:	d5fb      	bpl.n	80057f8 <_printf_i+0xe8>
 8005800:	881d      	ldrh	r5, [r3, #0]
 8005802:	4854      	ldr	r0, [pc, #336]	; (8005954 <_printf_i+0x244>)
 8005804:	2f6f      	cmp	r7, #111	; 0x6f
 8005806:	bf0c      	ite	eq
 8005808:	2308      	moveq	r3, #8
 800580a:	230a      	movne	r3, #10
 800580c:	2100      	movs	r1, #0
 800580e:	f884 1043 	strb.w	r1, [r4, #67]	; 0x43
 8005812:	6866      	ldr	r6, [r4, #4]
 8005814:	60a6      	str	r6, [r4, #8]
 8005816:	2e00      	cmp	r6, #0
 8005818:	bfa2      	ittt	ge
 800581a:	6821      	ldrge	r1, [r4, #0]
 800581c:	f021 0104 	bicge.w	r1, r1, #4
 8005820:	6021      	strge	r1, [r4, #0]
 8005822:	b90d      	cbnz	r5, 8005828 <_printf_i+0x118>
 8005824:	2e00      	cmp	r6, #0
 8005826:	d04d      	beq.n	80058c4 <_printf_i+0x1b4>
 8005828:	4616      	mov	r6, r2
 800582a:	fbb5 f1f3 	udiv	r1, r5, r3
 800582e:	fb03 5711 	mls	r7, r3, r1, r5
 8005832:	5dc7      	ldrb	r7, [r0, r7]
 8005834:	f806 7d01 	strb.w	r7, [r6, #-1]!
 8005838:	462f      	mov	r7, r5
 800583a:	42bb      	cmp	r3, r7
 800583c:	460d      	mov	r5, r1
 800583e:	d9f4      	bls.n	800582a <_printf_i+0x11a>
 8005840:	2b08      	cmp	r3, #8
 8005842:	d10b      	bne.n	800585c <_printf_i+0x14c>
 8005844:	6823      	ldr	r3, [r4, #0]
 8005846:	07df      	lsls	r7, r3, #31
 8005848:	d508      	bpl.n	800585c <_printf_i+0x14c>
 800584a:	6923      	ldr	r3, [r4, #16]
 800584c:	6861      	ldr	r1, [r4, #4]
 800584e:	4299      	cmp	r1, r3
 8005850:	bfde      	ittt	le
 8005852:	2330      	movle	r3, #48	; 0x30
 8005854:	f806 3c01 	strble.w	r3, [r6, #-1]
 8005858:	f106 36ff 	addle.w	r6, r6, #4294967295
 800585c:	1b92      	subs	r2, r2, r6
 800585e:	6122      	str	r2, [r4, #16]
 8005860:	f8cd a000 	str.w	sl, [sp]
 8005864:	464b      	mov	r3, r9
 8005866:	aa03      	add	r2, sp, #12
 8005868:	4621      	mov	r1, r4
 800586a:	4640      	mov	r0, r8
 800586c:	f7ff fee2 	bl	8005634 <_printf_common>
 8005870:	3001      	adds	r0, #1
 8005872:	d14c      	bne.n	800590e <_printf_i+0x1fe>
 8005874:	f04f 30ff 	mov.w	r0, #4294967295
 8005878:	b004      	add	sp, #16
 800587a:	e8bd 87f0 	ldmia.w	sp!, {r4, r5, r6, r7, r8, r9, sl, pc}
 800587e:	4835      	ldr	r0, [pc, #212]	; (8005954 <_printf_i+0x244>)
 8005880:	f884 7045 	strb.w	r7, [r4, #69]	; 0x45
 8005884:	6823      	ldr	r3, [r4, #0]
 8005886:	680e      	ldr	r6, [r1, #0]
 8005888:	061f      	lsls	r7, r3, #24
 800588a:	f856 5b04 	ldr.w	r5, [r6], #4
 800588e:	600e      	str	r6, [r1, #0]
 8005890:	d514      	bpl.n	80058bc <_printf_i+0x1ac>
 8005892:	07d9      	lsls	r1, r3, #31
 8005894:	bf44      	itt	mi
 8005896:	f043 0320 	orrmi.w	r3, r3, #32
 800589a:	6023      	strmi	r3, [r4, #0]
 800589c:	b91d      	cbnz	r5, 80058a6 <_printf_i+0x196>
 800589e:	6823      	ldr	r3, [r4, #0]
 80058a0:	f023 0320 	bic.w	r3, r3, #32
 80058a4:	6023      	str	r3, [r4, #0]
 80058a6:	2310      	movs	r3, #16
 80058a8:	e7b0      	b.n	800580c <_printf_i+0xfc>
 80058aa:	6823      	ldr	r3, [r4, #0]
 80058ac:	f043 0320 	orr.w	r3, r3, #32
 80058b0:	6023      	str	r3, [r4, #0]
 80058b2:	2378      	movs	r3, #120	; 0x78
 80058b4:	4828      	ldr	r0, [pc, #160]	; (8005958 <_printf_i+0x248>)
 80058b6:	f884 3045 	strb.w	r3, [r4, #69]	; 0x45
 80058ba:	e7e3      	b.n	8005884 <_printf_i+0x174>
 80058bc:	065e      	lsls	r6, r3, #25
 80058be:	bf48      	it	mi
 80058c0:	b2ad      	uxthmi	r5, r5
 80058c2:	e7e6      	b.n	8005892 <_printf_i+0x182>
 80058c4:	4616      	mov	r6, r2
 80058c6:	e7bb      	b.n	8005840 <_printf_i+0x130>
 80058c8:	680b      	ldr	r3, [r1, #0]
 80058ca:	6826      	ldr	r6, [r4, #0]
 80058cc:	6960      	ldr	r0, [r4, #20]
 80058ce:	1d1d      	adds	r5, r3, #4
 80058d0:	600d      	str	r5, [r1, #0]
 80058d2:	0635      	lsls	r5, r6, #24
 80058d4:	681b      	ldr	r3, [r3, #0]
 80058d6:	d501      	bpl.n	80058dc <_printf_i+0x1cc>
 80058d8:	6018      	str	r0, [r3, #0]
 80058da:	e002      	b.n	80058e2 <_printf_i+0x1d2>
 80058dc:	0671      	lsls	r1, r6, #25
 80058de:	d5fb      	bpl.n	80058d8 <_printf_i+0x1c8>
 80058e0:	8018      	strh	r0, [r3, #0]
 80058e2:	2300      	movs	r3, #0
 80058e4:	6123      	str	r3, [r4, #16]
 80058e6:	4616      	mov	r6, r2
 80058e8:	e7ba      	b.n	8005860 <_printf_i+0x150>
 80058ea:	680b      	ldr	r3, [r1, #0]
 80058ec:	1d1a      	adds	r2, r3, #4
 80058ee:	600a      	str	r2, [r1, #0]
 80058f0:	681e      	ldr	r6, [r3, #0]
 80058f2:	6862      	ldr	r2, [r4, #4]
 80058f4:	2100      	movs	r1, #0
 80058f6:	4630      	mov	r0, r6
 80058f8:	f7fa fc92 	bl	8000220 <memchr>
 80058fc:	b108      	cbz	r0, 8005902 <_printf_i+0x1f2>
 80058fe:	1b80      	subs	r0, r0, r6
 8005900:	6060      	str	r0, [r4, #4]
 8005902:	6863      	ldr	r3, [r4, #4]
 8005904:	6123      	str	r3, [r4, #16]
 8005906:	2300      	movs	r3, #0
 8005908:	f884 3043 	strb.w	r3, [r4, #67]	; 0x43
 800590c:	e7a8      	b.n	8005860 <_printf_i+0x150>
 800590e:	6923      	ldr	r3, [r4, #16]
 8005910:	4632      	mov	r2, r6
 8005912:	4649      	mov	r1, r9
 8005914:	4640      	mov	r0, r8
 8005916:	47d0      	blx	sl
 8005918:	3001      	adds	r0, #1
 800591a:	d0ab      	beq.n	8005874 <_printf_i+0x164>
 800591c:	6823      	ldr	r3, [r4, #0]
 800591e:	079b      	lsls	r3, r3, #30
 8005920:	d413      	bmi.n	800594a <_printf_i+0x23a>
 8005922:	68e0      	ldr	r0, [r4, #12]
 8005924:	9b03      	ldr	r3, [sp, #12]
 8005926:	4298      	cmp	r0, r3
 8005928:	bfb8      	it	lt
 800592a:	4618      	movlt	r0, r3
 800592c:	e7a4      	b.n	8005878 <_printf_i+0x168>
 800592e:	2301      	movs	r3, #1
 8005930:	4632      	mov	r2, r6
 8005932:	4649      	mov	r1, r9
 8005934:	4640      	mov	r0, r8
 8005936:	47d0      	blx	sl
 8005938:	3001      	adds	r0, #1
 800593a:	d09b      	beq.n	8005874 <_printf_i+0x164>
 800593c:	3501      	adds	r5, #1
 800593e:	68e3      	ldr	r3, [r4, #12]
 8005940:	9903      	ldr	r1, [sp, #12]
 8005942:	1a5b      	subs	r3, r3, r1
 8005944:	42ab      	cmp	r3, r5
 8005946:	dcf2      	bgt.n	800592e <_printf_i+0x21e>
 8005948:	e7eb      	b.n	8005922 <_printf_i+0x212>
 800594a:	2500      	movs	r5, #0
 800594c:	f104 0619 	add.w	r6, r4, #25
 8005950:	e7f5      	b.n	800593e <_printf_i+0x22e>
 8005952:	bf00      	nop
 8005954:	080060f1 	.word	0x080060f1
 8005958:	08006102 	.word	0x08006102

0800595c <memcpy>:
 800595c:	440a      	add	r2, r1
 800595e:	4291      	cmp	r1, r2
 8005960:	f100 33ff 	add.w	r3, r0, #4294967295
 8005964:	d100      	bne.n	8005968 <memcpy+0xc>
 8005966:	4770      	bx	lr
 8005968:	b510      	push	{r4, lr}
 800596a:	f811 4b01 	ldrb.w	r4, [r1], #1
 800596e:	f803 4f01 	strb.w	r4, [r3, #1]!
 8005972:	4291      	cmp	r1, r2
 8005974:	d1f9      	bne.n	800596a <memcpy+0xe>
 8005976:	bd10      	pop	{r4, pc}

08005978 <memmove>:
 8005978:	4288      	cmp	r0, r1
 800597a:	b510      	push	{r4, lr}
 800597c:	eb01 0402 	add.w	r4, r1, r2
 8005980:	d902      	bls.n	8005988 <memmove+0x10>
 8005982:	4284      	cmp	r4, r0
 8005984:	4623      	mov	r3, r4
 8005986:	d807      	bhi.n	8005998 <memmove+0x20>
 8005988:	1e43      	subs	r3, r0, #1
 800598a:	42a1      	cmp	r1, r4
 800598c:	d008      	beq.n	80059a0 <memmove+0x28>
 800598e:	f811 2b01 	ldrb.w	r2, [r1], #1
 8005992:	f803 2f01 	strb.w	r2, [r3, #1]!
 8005996:	e7f8      	b.n	800598a <memmove+0x12>
 8005998:	4402      	add	r2, r0
 800599a:	4601      	mov	r1, r0
 800599c:	428a      	cmp	r2, r1
 800599e:	d100      	bne.n	80059a2 <memmove+0x2a>
 80059a0:	bd10      	pop	{r4, pc}
 80059a2:	f813 4d01 	ldrb.w	r4, [r3, #-1]!
 80059a6:	f802 4d01 	strb.w	r4, [r2, #-1]!
 80059aa:	e7f7      	b.n	800599c <memmove+0x24>

080059ac <_free_r>:
 80059ac:	b537      	push	{r0, r1, r2, r4, r5, lr}
 80059ae:	2900      	cmp	r1, #0
 80059b0:	d048      	beq.n	8005a44 <_free_r+0x98>
 80059b2:	f851 3c04 	ldr.w	r3, [r1, #-4]
 80059b6:	9001      	str	r0, [sp, #4]
 80059b8:	2b00      	cmp	r3, #0
 80059ba:	f1a1 0404 	sub.w	r4, r1, #4
 80059be:	bfb8      	it	lt
 80059c0:	18e4      	addlt	r4, r4, r3
 80059c2:	f000 f8d3 	bl	8005b6c <__malloc_lock>
 80059c6:	4a20      	ldr	r2, [pc, #128]	; (8005a48 <_free_r+0x9c>)
 80059c8:	9801      	ldr	r0, [sp, #4]
 80059ca:	6813      	ldr	r3, [r2, #0]
 80059cc:	4615      	mov	r5, r2
 80059ce:	b933      	cbnz	r3, 80059de <_free_r+0x32>
 80059d0:	6063      	str	r3, [r4, #4]
 80059d2:	6014      	str	r4, [r2, #0]
 80059d4:	b003      	add	sp, #12
 80059d6:	e8bd 4030 	ldmia.w	sp!, {r4, r5, lr}
 80059da:	f000 b8cd 	b.w	8005b78 <__malloc_unlock>
 80059de:	42a3      	cmp	r3, r4
 80059e0:	d90b      	bls.n	80059fa <_free_r+0x4e>
 80059e2:	6821      	ldr	r1, [r4, #0]
 80059e4:	1862      	adds	r2, r4, r1
 80059e6:	4293      	cmp	r3, r2
 80059e8:	bf04      	itt	eq
 80059ea:	681a      	ldreq	r2, [r3, #0]
 80059ec:	685b      	ldreq	r3, [r3, #4]
 80059ee:	6063      	str	r3, [r4, #4]
 80059f0:	bf04      	itt	eq
 80059f2:	1852      	addeq	r2, r2, r1
 80059f4:	6022      	streq	r2, [r4, #0]
 80059f6:	602c      	str	r4, [r5, #0]
 80059f8:	e7ec      	b.n	80059d4 <_free_r+0x28>
 80059fa:	461a      	mov	r2, r3
 80059fc:	685b      	ldr	r3, [r3, #4]
 80059fe:	b10b      	cbz	r3, 8005a04 <_free_r+0x58>
 8005a00:	42a3      	cmp	r3, r4
 8005a02:	d9fa      	bls.n	80059fa <_free_r+0x4e>
 8005a04:	6811      	ldr	r1, [r2, #0]
 8005a06:	1855      	adds	r5, r2, r1
 8005a08:	42a5      	cmp	r5, r4
 8005a0a:	d10b      	bne.n	8005a24 <_free_r+0x78>
 8005a0c:	6824      	ldr	r4, [r4, #0]
 8005a0e:	4421      	add	r1, r4
 8005a10:	1854      	adds	r4, r2, r1
 8005a12:	42a3      	cmp	r3, r4
 8005a14:	6011      	str	r1, [r2, #0]
 8005a16:	d1dd      	bne.n	80059d4 <_free_r+0x28>
 8005a18:	681c      	ldr	r4, [r3, #0]
 8005a1a:	685b      	ldr	r3, [r3, #4]
 8005a1c:	6053      	str	r3, [r2, #4]
 8005a1e:	4421      	add	r1, r4
 8005a20:	6011      	str	r1, [r2, #0]
 8005a22:	e7d7      	b.n	80059d4 <_free_r+0x28>
 8005a24:	d902      	bls.n	8005a2c <_free_r+0x80>
 8005a26:	230c      	movs	r3, #12
 8005a28:	6003      	str	r3, [r0, #0]
 8005a2a:	e7d3      	b.n	80059d4 <_free_r+0x28>
 8005a2c:	6825      	ldr	r5, [r4, #0]
 8005a2e:	1961      	adds	r1, r4, r5
 8005a30:	428b      	cmp	r3, r1
 8005a32:	bf04      	itt	eq
 8005a34:	6819      	ldreq	r1, [r3, #0]
 8005a36:	685b      	ldreq	r3, [r3, #4]
 8005a38:	6063      	str	r3, [r4, #4]
 8005a3a:	bf04      	itt	eq
 8005a3c:	1949      	addeq	r1, r1, r5
 8005a3e:	6021      	streq	r1, [r4, #0]
 8005a40:	6054      	str	r4, [r2, #4]
 8005a42:	e7c7      	b.n	80059d4 <_free_r+0x28>
 8005a44:	b003      	add	sp, #12
 8005a46:	bd30      	pop	{r4, r5, pc}
 8005a48:	200000a8 	.word	0x200000a8

08005a4c <_malloc_r>:
 8005a4c:	b5f8      	push	{r3, r4, r5, r6, r7, lr}
 8005a4e:	1ccd      	adds	r5, r1, #3
 8005a50:	f025 0503 	bic.w	r5, r5, #3
 8005a54:	3508      	adds	r5, #8
 8005a56:	2d0c      	cmp	r5, #12
 8005a58:	bf38      	it	cc
 8005a5a:	250c      	movcc	r5, #12
 8005a5c:	2d00      	cmp	r5, #0
 8005a5e:	4606      	mov	r6, r0
 8005a60:	db01      	blt.n	8005a66 <_malloc_r+0x1a>
 8005a62:	42a9      	cmp	r1, r5
 8005a64:	d903      	bls.n	8005a6e <_malloc_r+0x22>
 8005a66:	230c      	movs	r3, #12
 8005a68:	6033      	str	r3, [r6, #0]
 8005a6a:	2000      	movs	r0, #0
 8005a6c:	bdf8      	pop	{r3, r4, r5, r6, r7, pc}
 8005a6e:	f000 f87d 	bl	8005b6c <__malloc_lock>
 8005a72:	4921      	ldr	r1, [pc, #132]	; (8005af8 <_malloc_r+0xac>)
 8005a74:	680a      	ldr	r2, [r1, #0]
 8005a76:	4614      	mov	r4, r2
 8005a78:	b99c      	cbnz	r4, 8005aa2 <_malloc_r+0x56>
 8005a7a:	4f20      	ldr	r7, [pc, #128]	; (8005afc <_malloc_r+0xb0>)
 8005a7c:	683b      	ldr	r3, [r7, #0]
 8005a7e:	b923      	cbnz	r3, 8005a8a <_malloc_r+0x3e>
 8005a80:	4621      	mov	r1, r4
 8005a82:	4630      	mov	r0, r6
 8005a84:	f000 f862 	bl	8005b4c <_sbrk_r>
 8005a88:	6038      	str	r0, [r7, #0]
 8005a8a:	4629      	mov	r1, r5
 8005a8c:	4630      	mov	r0, r6
 8005a8e:	f000 f85d 	bl	8005b4c <_sbrk_r>
 8005a92:	1c43      	adds	r3, r0, #1
 8005a94:	d123      	bne.n	8005ade <_malloc_r+0x92>
 8005a96:	230c      	movs	r3, #12
 8005a98:	6033      	str	r3, [r6, #0]
 8005a9a:	4630      	mov	r0, r6
 8005a9c:	f000 f86c 	bl	8005b78 <__malloc_unlock>
 8005aa0:	e7e3      	b.n	8005a6a <_malloc_r+0x1e>
 8005aa2:	6823      	ldr	r3, [r4, #0]
 8005aa4:	1b5b      	subs	r3, r3, r5
 8005aa6:	d417      	bmi.n	8005ad8 <_malloc_r+0x8c>
 8005aa8:	2b0b      	cmp	r3, #11
 8005aaa:	d903      	bls.n	8005ab4 <_malloc_r+0x68>
 8005aac:	6023      	str	r3, [r4, #0]
 8005aae:	441c      	add	r4, r3
 8005ab0:	6025      	str	r5, [r4, #0]
 8005ab2:	e004      	b.n	8005abe <_malloc_r+0x72>
 8005ab4:	6863      	ldr	r3, [r4, #4]
 8005ab6:	42a2      	cmp	r2, r4
 8005ab8:	bf0c      	ite	eq
 8005aba:	600b      	streq	r3, [r1, #0]
 8005abc:	6053      	strne	r3, [r2, #4]
 8005abe:	4630      	mov	r0, r6
 8005ac0:	f000 f85a 	bl	8005b78 <__malloc_unlock>
 8005ac4:	f104 000b 	add.w	r0, r4, #11
 8005ac8:	1d23      	adds	r3, r4, #4
 8005aca:	f020 0007 	bic.w	r0, r0, #7
 8005ace:	1ac2      	subs	r2, r0, r3
 8005ad0:	d0cc      	beq.n	8005a6c <_malloc_r+0x20>
 8005ad2:	1a1b      	subs	r3, r3, r0
 8005ad4:	50a3      	str	r3, [r4, r2]
 8005ad6:	e7c9      	b.n	8005a6c <_malloc_r+0x20>
 8005ad8:	4622      	mov	r2, r4
 8005ada:	6864      	ldr	r4, [r4, #4]
 8005adc:	e7cc      	b.n	8005a78 <_malloc_r+0x2c>
 8005ade:	1cc4      	adds	r4, r0, #3
 8005ae0:	f024 0403 	bic.w	r4, r4, #3
 8005ae4:	42a0      	cmp	r0, r4
 8005ae6:	d0e3      	beq.n	8005ab0 <_malloc_r+0x64>
 8005ae8:	1a21      	subs	r1, r4, r0
 8005aea:	4630      	mov	r0, r6
 8005aec:	f000 f82e 	bl	8005b4c <_sbrk_r>
 8005af0:	3001      	adds	r0, #1
 8005af2:	d1dd      	bne.n	8005ab0 <_malloc_r+0x64>
 8005af4:	e7cf      	b.n	8005a96 <_malloc_r+0x4a>
 8005af6:	bf00      	nop
 8005af8:	200000a8 	.word	0x200000a8
 8005afc:	200000ac 	.word	0x200000ac

08005b00 <_realloc_r>:
 8005b00:	b5f8      	push	{r3, r4, r5, r6, r7, lr}
 8005b02:	4607      	mov	r7, r0
 8005b04:	4614      	mov	r4, r2
 8005b06:	460e      	mov	r6, r1
 8005b08:	b921      	cbnz	r1, 8005b14 <_realloc_r+0x14>
 8005b0a:	e8bd 40f8 	ldmia.w	sp!, {r3, r4, r5, r6, r7, lr}
 8005b0e:	4611      	mov	r1, r2
 8005b10:	f7ff bf9c 	b.w	8005a4c <_malloc_r>
 8005b14:	b922      	cbnz	r2, 8005b20 <_realloc_r+0x20>
 8005b16:	f7ff ff49 	bl	80059ac <_free_r>
 8005b1a:	4625      	mov	r5, r4
 8005b1c:	4628      	mov	r0, r5
 8005b1e:	bdf8      	pop	{r3, r4, r5, r6, r7, pc}
 8005b20:	f000 f830 	bl	8005b84 <_malloc_usable_size_r>
 8005b24:	42a0      	cmp	r0, r4
 8005b26:	d20f      	bcs.n	8005b48 <_realloc_r+0x48>
 8005b28:	4621      	mov	r1, r4
 8005b2a:	4638      	mov	r0, r7
 8005b2c:	f7ff ff8e 	bl	8005a4c <_malloc_r>
 8005b30:	4605      	mov	r5, r0
 8005b32:	2800      	cmp	r0, #0
 8005b34:	d0f2      	beq.n	8005b1c <_realloc_r+0x1c>
 8005b36:	4631      	mov	r1, r6
 8005b38:	4622      	mov	r2, r4
 8005b3a:	f7ff ff0f 	bl	800595c <memcpy>
 8005b3e:	4631      	mov	r1, r6
 8005b40:	4638      	mov	r0, r7
 8005b42:	f7ff ff33 	bl	80059ac <_free_r>
 8005b46:	e7e9      	b.n	8005b1c <_realloc_r+0x1c>
 8005b48:	4635      	mov	r5, r6
 8005b4a:	e7e7      	b.n	8005b1c <_realloc_r+0x1c>

08005b4c <_sbrk_r>:
 8005b4c:	b538      	push	{r3, r4, r5, lr}
 8005b4e:	4d06      	ldr	r5, [pc, #24]	; (8005b68 <_sbrk_r+0x1c>)
 8005b50:	2300      	movs	r3, #0
 8005b52:	4604      	mov	r4, r0
 8005b54:	4608      	mov	r0, r1
 8005b56:	602b      	str	r3, [r5, #0]
 8005b58:	f7fc fa12 	bl	8001f80 <_sbrk>
 8005b5c:	1c43      	adds	r3, r0, #1
 8005b5e:	d102      	bne.n	8005b66 <_sbrk_r+0x1a>
 8005b60:	682b      	ldr	r3, [r5, #0]
 8005b62:	b103      	cbz	r3, 8005b66 <_sbrk_r+0x1a>
 8005b64:	6023      	str	r3, [r4, #0]
 8005b66:	bd38      	pop	{r3, r4, r5, pc}
 8005b68:	20000ce4 	.word	0x20000ce4

08005b6c <__malloc_lock>:
 8005b6c:	4801      	ldr	r0, [pc, #4]	; (8005b74 <__malloc_lock+0x8>)
 8005b6e:	f000 b811 	b.w	8005b94 <__retarget_lock_acquire_recursive>
 8005b72:	bf00      	nop
 8005b74:	20000cec 	.word	0x20000cec

08005b78 <__malloc_unlock>:
 8005b78:	4801      	ldr	r0, [pc, #4]	; (8005b80 <__malloc_unlock+0x8>)
 8005b7a:	f000 b80c 	b.w	8005b96 <__retarget_lock_release_recursive>
 8005b7e:	bf00      	nop
 8005b80:	20000cec 	.word	0x20000cec

08005b84 <_malloc_usable_size_r>:
 8005b84:	f851 3c04 	ldr.w	r3, [r1, #-4]
 8005b88:	1f18      	subs	r0, r3, #4
 8005b8a:	2b00      	cmp	r3, #0
 8005b8c:	bfbc      	itt	lt
 8005b8e:	580b      	ldrlt	r3, [r1, r0]
 8005b90:	18c0      	addlt	r0, r0, r3
 8005b92:	4770      	bx	lr

08005b94 <__retarget_lock_acquire_recursive>:
 8005b94:	4770      	bx	lr

08005b96 <__retarget_lock_release_recursive>:
 8005b96:	4770      	bx	lr

08005b98 <_init>:
 8005b98:	b5f8      	push	{r3, r4, r5, r6, r7, lr}
 8005b9a:	bf00      	nop
 8005b9c:	bcf8      	pop	{r3, r4, r5, r6, r7}
 8005b9e:	bc08      	pop	{r3}
 8005ba0:	469e      	mov	lr, r3
 8005ba2:	4770      	bx	lr

08005ba4 <_fini>:
 8005ba4:	b5f8      	push	{r3, r4, r5, r6, r7, lr}
 8005ba6:	bf00      	nop
 8005ba8:	bcf8      	pop	{r3, r4, r5, r6, r7}
 8005baa:	bc08      	pop	{r3}
 8005bac:	469e      	mov	lr, r3
 8005bae:	4770      	bx	lr
